Certificate:
    Data:
        Version: 3 (0x2)
        Serial Number:
            50:e8:8d:31:e1:2c:9f:0b:b4:a1:ef:fa:35:f7:3e:85:1f:9b:1a:c7
        Signature Algorithm: sha256WithRSAEncryption
        Issuer: C=BE, ST=Vlaams-Brabant, O=Xanthis BV, CN=localhost/emailAddress=pvdabeel@mac.com
        Validity
            Not Before: Aug 16 22:54:25 2024 GMT
            Not After : Aug 16 22:54:25 2027 GMT
        Subject: C=BE, ST=Vlaams-Brabant, O=Xanthis BV, CN=localhost/emailAddress=pvdabeel@mac.com
        Subject Public Key Info:
            Public Key Algorithm: rsaEncryption
                Public-Key: (2048 bit)
                Modulus:
                    00:97:b7:7d:f3:29:40:f7:1f:97:b6:c0:0e:20:68:
                    f3:d5:f9:93:1e:85:cc:d0:9d:87:8b:4b:61:ef:2f:
                    8b:78:ed:91:14:fb:a1:55:9c:c8:07:b5:0a:21:ae:
                    19:5d:b5:11:a9:00:c5:dc:75:63:cf:e2:7c:62:48:
                    21:79:c0:03:01:a8:03:93:b3:a0:bb:1a:c8:d7:c3:
                    a3:f5:24:b6:c0:5b:a3:28:aa:ac:6d:32:88:56:13:
                    26:e1:04:34:8e:9d:15:f4:a3:75:13:c2:82:53:51:
                    d0:7b:66:a1:74:e8:a0:5c:b7:80:60:6d:ba:0c:f2:
                    cd:5f:5d:c4:80:b4:dc:1e:55:f4:ff:7d:47:69:79:
                    5b:48:18:f7:d1:36:48:cb:1e:a7:36:61:62:05:d9:
                    4f:18:c4:a1:f4:20:24:bf:20:c9:6e:80:50:ef:78:
                    bf:86:d5:2d:97:14:22:0b:92:9d:04:27:e5:f5:ba:
                    1c:7b:06:04:18:8a:5c:0d:d2:d9:e6:72:82:77:f3:
                    b7:e2:c3:40:bc:24:54:a5:bb:9f:00:13:18:04:71:
                    79:2d:0d:18:2b:75:46:bd:ff:ee:c9:97:ae:cf:6f:
                    5d:df:5c:81:1c:3e:fb:d2:4e:8b:0a:44:a3:3c:da:
                    7c:dc:d5:5c:ce:4e:9d:6f:1b:bb:84:0e:52:0b:a6:
                    99:13
                Exponent: 65537 (0x10001)
        X509v3 extensions:
            X509v3 Subject Key Identifier: 
                7A:AE:AF:1A:79:4C:60:40:AB:BE:B6:CC:12:34:0F:8E:A9:E8:4E:09
            X509v3 Authority Key Identifier: 
                7A:AE:AF:1A:79:4C:60:40:AB:BE:B6:CC:12:34:0F:8E:A9:E8:4E:09
            X509v3 Basic Constraints: critical
                CA:TRUE
    Signature Algorithm: sha256WithRSAEncryption
    Signature Value:
        27:9a:cb:b7:68:1a:90:d8:5b:e5:ef:95:1b:98:60:59:e6:fe:
        79:6b:c3:f3:2a:e8:d5:48:c6:52:ef:0a:a1:bf:e8:8e:2b:2e:
        dc:eb:88:ce:6a:bd:95:29:4e:e7:7c:39:60:8b:3e:9a:3f:ad:
        92:cb:a1:8f:91:83:60:46:f7:89:65:3f:33:bb:8b:b4:41:b2:
        b6:15:b9:f1:b8:56:49:38:c6:01:4e:a5:19:e3:f2:8a:fd:d2:
        4e:c6:76:2c:c9:63:64:48:97:6b:d2:bd:e1:ac:5e:dc:81:ab:
        4c:d8:ca:86:1c:6c:7b:15:0b:a6:a1:e8:4a:b3:48:74:ef:3c:
        31:ad:a3:f7:ef:b4:71:a8:c1:23:5a:19:84:e5:1b:03:08:e0:
        3d:30:cf:0c:98:ef:87:66:8d:f1:0f:37:04:db:5a:49:7b:75:
        f4:fa:b2:56:3a:d0:0c:6b:c9:59:25:01:b2:c9:9f:7b:61:32:
        eb:89:e9:83:3b:27:c4:69:8a:08:26:23:e8:ac:c3:57:7a:07:
        10:ae:7e:02:82:aa:3a:c3:f2:27:64:bf:e6:16:fd:10:3a:3d:
        0a:9a:a3:5d:2c:84:2b:39:aa:6c:ac:e8:53:7a:60:cd:d6:e1:
        26:d9:58:e9:93:b2:74:f8:2f:5a:23:56:35:1c:22:50:bd:3d:
        69:d8:be:4b
-----BEGIN CERTIFICATE-----
MIIDwTCCAqmgAwIBAgIUUOiNMeEsnwu0oe/6Nfc+hR+bGscwDQYJKoZIhvcNAQEL
BQAwcDELMAkGA1UEBhMCQkUxFzAVBgNVBAgMDlZsYWFtcy1CcmFiYW50MRMwEQYD
VQQKDApYYW50aGlzIEJWMRIwEAYDVQQDDAlsb2NhbGhvc3QxHzAdBgkqhkiG9w0B
CQEWEHB2ZGFiZWVsQG1hYy5jb20wHhcNMjQwODE2MjI1NDI1WhcNMjcwODE2MjI1
NDI1WjBwMQswCQYDVQQGEwJCRTEXMBUGA1UECAwOVmxhYW1zLUJyYWJhbnQxEzAR
BgNVBAoMClhhbnRoaXMgQlYxEjAQBgNVBAMMCWxvY2FsaG9zdDEfMB0GCSqGSIb3
DQEJARYQcHZkYWJlZWxAbWFjLmNvbTCCASIwDQYJKoZIhvcNAQEBBQADggEPADCC
AQoCggEBAJe3ffMpQPcfl7bADiBo89X5kx6FzNCdh4tLYe8vi3jtkRT7oVWcyAe1
CiGuGV21EakAxdx1Y8/ifGJIIXnAAwGoA5OzoLsayNfDo/UktsBboyiqrG0yiFYT
JuEENI6dFfSjdRPCglNR0HtmoXTooFy3gGBtugzyzV9dxIC03B5V9P99R2l5W0gY
99E2SMsepzZhYgXZTxjEofQgJL8gyW6AUO94v4bVLZcUIguSnQQn5fW6HHsGBBiK
XA3S2eZygnfzt+LDQLwkVKW7nwATGARxeS0NGCt1Rr3/7smXrs9vXd9cgRw++9JO
iwpEozzafNzVXM5OnW8bu4QOUgummRMCAwEAAaNTMFEwHQYDVR0OBBYEFHqurxp5
TGBAq762zBI0D46p6E4JMB8GA1UdIwQYMBaAFHqurxp5TGBAq762zBI0D46p6E4J
MA8GA1UdEwEB/wQFMAMBAf8wDQYJKoZIhvcNAQELBQADggEBACeay7doGpDYW+Xv
lRuYYFnm/nlrw/Mq6NVIxlLvCqG/6I4rLtzriM5qvZUpTud8OWCLPpo/rZLLoY+R
g2BG94llPzO7i7RBsrYVufG4Vkk4xgFOpRnj8or90k7GdizJY2RIl2vSveGsXtyB
q0zYyoYcbHsVC6ah6EqzSHTvPDGto/fvtHGowSNaGYTlGwMI4D0wzwyY74dmjfEP
NwTbWkl7dfT6slY60AxryVklAbLJn3thMuuJ6YM7J8RpiggmI+isw1d6BxCufgKC
qjrD8idkv+YW/RA6PQqao10shCs5qmys6FN6YM3W4SbZWOmTsnT4L1ojVjUcIlC9
PWnYvks=
-----END CERTIFICATE-----
