Certificate:
    Data:
        Version: 3 (0x2)
        Serial Number:
            4f:7a:14:15:e4:c5:16:6b:56:4d:da:8c:71:20:63:d2:c6:87:8e:cd
        Signature Algorithm: sha256WithRSAEncryption
        Issuer: C=BE, ST=Vlaams-Brabant, O=Portage-ng Client-Server Demo CA, CN=Pieter Van den Abeele/emailAddress=pvdabeel@mac.com
        Validity
            Not Before: Aug 19 15:01:29 2024 GMT
            Not After : Aug 19 15:01:29 2027 GMT
        Subject: C=BE, ST=Vlaams-Brabant, O=Portage-ng Client-Server Demo CA, CN=Pieter Van den Abeele/emailAddress=pvdabeel@mac.com
        Subject Public Key Info:
            Public Key Algorithm: rsaEncryption
                Public-Key: (2048 bit)
                Modulus:
                    00:ac:b1:d6:43:07:36:02:c2:48:d0:8a:50:48:1a:
                    c0:44:5a:24:9d:76:84:cf:3a:bc:50:17:5a:9a:49:
                    57:71:64:21:32:5d:45:8b:0b:2c:3b:d4:83:f1:3e:
                    c0:a0:10:c0:9c:89:ab:81:1f:eb:f1:d2:1a:ff:11:
                    a7:cb:a6:d9:f3:82:a6:d5:4a:a5:d9:87:38:19:45:
                    a4:3c:53:9d:14:ed:a9:e8:25:a9:67:8d:b0:af:9c:
                    4a:ac:cd:63:a2:ac:04:5d:c7:20:60:ab:14:c5:2f:
                    4c:5d:70:3a:b0:93:e7:60:2a:0c:f1:56:b2:b3:78:
                    05:72:f6:87:35:73:db:c2:bd:24:c7:aa:5a:2f:af:
                    fa:79:aa:5c:f9:34:08:64:a1:2b:bd:22:80:32:e6:
                    b2:e6:8a:0f:a6:f3:6d:5a:ac:36:53:55:d5:ef:08:
                    af:a0:72:de:83:99:04:c4:30:ea:81:02:56:24:ed:
                    81:d8:8f:f8:a0:a0:dc:36:b9:21:c6:a2:86:2e:51:
                    4e:4d:56:b1:45:c0:e3:7a:b6:77:f8:ac:8c:6f:81:
                    a6:82:6d:ee:4e:0d:c0:78:3f:48:b0:0c:72:4c:06:
                    22:cc:15:f0:c6:c5:f8:8f:a5:be:45:67:e8:0f:a4:
                    17:d2:14:a6:34:06:b2:2e:bb:83:30:83:b5:5f:a6:
                    21:23
                Exponent: 65537 (0x10001)
        X509v3 extensions:
            X509v3 Subject Key Identifier: 
                61:8E:A5:04:A4:94:1D:62:AC:C4:05:15:9C:A2:75:70:5C:41:AA:A9
            X509v3 Authority Key Identifier: 
                61:8E:A5:04:A4:94:1D:62:AC:C4:05:15:9C:A2:75:70:5C:41:AA:A9
            X509v3 Basic Constraints: critical
                CA:TRUE
    Signature Algorithm: sha256WithRSAEncryption
    Signature Value:
        6b:c6:cb:ad:35:98:84:5e:10:69:8d:ba:af:8a:b1:98:af:9d:
        8e:01:d6:a4:13:7c:38:6c:dc:e1:6c:19:d5:01:ef:b9:e5:35:
        3f:17:14:c9:4d:07:6f:c8:4a:6a:e4:87:02:c4:7c:07:e5:7d:
        c0:d3:90:0d:c3:73:83:b0:50:a0:d5:23:f5:73:7b:fd:de:ec:
        03:2d:0a:29:de:29:c9:9d:d8:fc:c6:ef:81:c8:ae:a4:a3:6d:
        62:28:0c:6a:47:fb:e8:b3:b5:fd:22:f8:1a:a5:9b:34:2b:a1:
        be:2b:14:16:c1:80:a3:78:35:8b:75:fa:bf:92:6b:f7:6c:ff:
        20:ff:6d:1b:28:39:26:60:24:65:26:75:f3:51:0e:6e:60:d6:
        ec:86:65:a8:e3:ae:f1:89:f8:ae:c4:07:cb:25:2d:34:55:7a:
        d8:a1:80:b5:79:1a:7b:44:ca:db:12:c5:e1:06:ff:a6:ef:ba:
        3f:23:e0:2a:a2:2f:b4:c0:36:25:07:1b:9f:86:6f:44:a3:ea:
        3f:9e:f2:ce:22:6f:7e:78:3f:93:bd:68:74:54:d6:a2:86:90:
        0e:a0:dd:b8:e1:39:89:34:a9:67:a4:0a:82:6d:c2:54:8e:55:
        da:80:3a:03:4e:0b:94:e1:bb:e2:3d:92:2a:58:b2:0a:90:d5:
        c1:2c:b3:9f
-----BEGIN CERTIFICATE-----
MIIEBzCCAu+gAwIBAgIUT3oUFeTFFmtWTdqMcSBj0saHjs0wDQYJKoZIhvcNAQEL
BQAwgZIxCzAJBgNVBAYTAkJFMRcwFQYDVQQIDA5WbGFhbXMtQnJhYmFudDEpMCcG
A1UECgwgUG9ydGFnZS1uZyBDbGllbnQtU2VydmVyIERlbW8gQ0ExHjAcBgNVBAMM
FVBpZXRlciBWYW4gZGVuIEFiZWVsZTEfMB0GCSqGSIb3DQEJARYQcHZkYWJlZWxA
bWFjLmNvbTAeFw0yNDA4MTkxNTAxMjlaFw0yNzA4MTkxNTAxMjlaMIGSMQswCQYD
VQQGEwJCRTEXMBUGA1UECAwOVmxhYW1zLUJyYWJhbnQxKTAnBgNVBAoMIFBvcnRh
Z2UtbmcgQ2xpZW50LVNlcnZlciBEZW1vIENBMR4wHAYDVQQDDBVQaWV0ZXIgVmFu
IGRlbiBBYmVlbGUxHzAdBgkqhkiG9w0BCQEWEHB2ZGFiZWVsQG1hYy5jb20wggEi
MA0GCSqGSIb3DQEBAQUAA4IBDwAwggEKAoIBAQCssdZDBzYCwkjQilBIGsBEWiSd
doTPOrxQF1qaSVdxZCEyXUWLCyw71IPxPsCgEMCciauBH+vx0hr/EafLptnzgqbV
SqXZhzgZRaQ8U50U7anoJalnjbCvnEqszWOirARdxyBgqxTFL0xdcDqwk+dgKgzx
VrKzeAVy9oc1c9vCvSTHqlovr/p5qlz5NAhkoSu9IoAy5rLmig+m821arDZTVdXv
CK+gct6DmQTEMOqBAlYk7YHYj/igoNw2uSHGooYuUU5NVrFFwON6tnf4rIxvgaaC
be5ODcB4P0iwDHJMBiLMFfDGxfiPpb5FZ+gPpBfSFKY0BrIuu4Mwg7VfpiEjAgMB
AAGjUzBRMB0GA1UdDgQWBBRhjqUEpJQdYqzEBRWconVwXEGqqTAfBgNVHSMEGDAW
gBRhjqUEpJQdYqzEBRWconVwXEGqqTAPBgNVHRMBAf8EBTADAQH/MA0GCSqGSIb3
DQEBCwUAA4IBAQBrxsutNZiEXhBpjbqvirGYr52OAdakE3w4bNzhbBnVAe+55TU/
FxTJTQdvyEpq5IcCxHwH5X3A05ANw3ODsFCg1SP1c3v93uwDLQop3inJndj8xu+B
yK6ko21iKAxqR/vos7X9IvgapZs0K6G+KxQWwYCjeDWLdfq/kmv3bP8g/20bKDkm
YCRlJnXzUQ5uYNbshmWo467xifiuxAfLJS00VXrYoYC1eRp7RMrbEsXhBv+m77o/
I+Aqoi+0wDYlBxufhm9Eo+o/nvLOIm9+eD+TvWh0VNaihpAOoN244TmJNKlnpAqC
bcJUjlXagDoDTguU4bviPZIqWLIKkNXBLLOf
-----END CERTIFICATE-----
