Certificate:
    Data:
        Version: 3 (0x2)
        Serial Number:
            3c:c7:18:4c:52:83:5b:0e:89:ed:71:ed:50:01:d5:e8:91:6a:37:44
        Signature Algorithm: sha256WithRSAEncryption
        Issuer: C=BE, ST=Vlaams-Brabant, O=Portage-ng Demo CA, CN=Pieter Van den Abeele/emailAddress=pvdabeel@mac.com
        Validity
            Not Before: Aug 19 15:43:01 2024 GMT
            Not After : Aug 19 15:43:01 2027 GMT
        Subject: C=BE, ST=Vlaams-Brabant, O=Portage-ng Demo CA, CN=Pieter Van den Abeele/emailAddress=pvdabeel@mac.com
        Subject Public Key Info:
            Public Key Algorithm: rsaEncryption
                Public-Key: (2048 bit)
                Modulus:
                    00:d2:11:d2:6b:d3:bc:f3:7b:c5:da:b6:5a:1c:cc:
                    a8:14:a7:59:b8:40:b4:e7:0a:c6:9b:ea:5f:1d:c1:
                    95:c7:80:bf:e5:ac:4e:de:f4:af:99:1a:0c:2f:22:
                    33:e9:42:59:01:00:fe:ef:5e:d4:15:7e:59:e9:c4:
                    0d:01:b7:6f:1f:28:41:bf:b5:fc:93:68:25:a8:3c:
                    c8:06:51:4a:bd:2c:64:6d:6b:c7:95:b6:ee:42:8a:
                    0a:4a:ee:0e:be:ba:0c:96:62:18:7b:53:67:d9:96:
                    04:16:12:d8:24:9d:d6:04:7d:b9:78:55:bd:a8:74:
                    d3:3c:b8:0b:6a:31:14:af:4b:d2:77:3a:be:3d:6b:
                    c4:da:49:17:04:2a:cb:f5:07:2f:e2:ac:b1:db:56:
                    a8:87:d7:23:4c:ee:27:1b:ec:36:87:e2:f8:4e:da:
                    ea:dd:93:33:9b:83:d7:04:c3:86:70:cd:3a:09:02:
                    c3:71:83:5d:cf:ec:00:6e:fe:d9:ef:e2:27:c9:ac:
                    9c:28:89:f8:ed:db:3d:79:8e:a6:95:89:8e:aa:7a:
                    86:61:18:5c:78:7e:45:a9:31:c3:18:f1:dd:6d:22:
                    ae:55:55:35:16:77:56:93:87:b7:a8:21:5c:ac:ac:
                    67:7b:4b:90:0d:f3:bc:cf:8c:02:c1:c4:da:90:05:
                    c2:f1
                Exponent: 65537 (0x10001)
        X509v3 extensions:
            X509v3 Subject Key Identifier: 
                89:AF:F7:10:4A:F6:2B:38:35:03:56:FF:8D:03:61:53:3B:26:C8:7D
            X509v3 Authority Key Identifier: 
                89:AF:F7:10:4A:F6:2B:38:35:03:56:FF:8D:03:61:53:3B:26:C8:7D
            X509v3 Basic Constraints: critical
                CA:TRUE
    Signature Algorithm: sha256WithRSAEncryption
    Signature Value:
        8a:aa:f4:2b:67:32:c8:0f:4d:67:69:a9:f3:fe:38:52:f2:ce:
        a6:b9:11:4e:14:ad:6e:0d:52:20:b8:68:3f:34:ed:1f:79:45:
        ce:6c:dd:ea:98:96:6d:71:6e:69:1b:cb:ab:a3:62:58:fe:5b:
        6a:28:10:6f:26:ca:e1:e3:86:34:48:61:0e:cc:47:a6:38:15:
        4a:c7:be:4c:a8:31:29:bc:d5:32:cb:c6:d1:ae:73:8d:07:95:
        96:d1:61:a3:2f:e1:0a:92:78:dd:3a:8c:ef:ca:df:e8:99:d7:
        13:f0:0e:73:d3:39:3c:a8:85:6d:d8:05:76:a2:3b:62:67:2b:
        5b:65:49:25:94:d0:5c:8f:b2:f5:0a:17:c4:c8:be:51:53:ac:
        e9:d8:8e:6b:b0:62:83:54:48:d7:a7:6d:23:58:ad:c1:57:0f:
        cf:70:4a:31:53:6b:21:e4:02:6a:b6:ff:38:ef:7a:5e:22:c4:
        39:51:e3:a4:cd:36:1e:73:f1:56:e1:22:8b:c1:51:ea:27:55:
        03:a1:9a:dd:72:a0:0c:77:33:62:7e:c4:c3:1a:62:2d:7f:55:
        bb:72:c0:32:30:e3:3c:6b:44:59:b1:ba:89:47:33:71:6d:3a:
        48:f9:55:3d:2a:b8:45:23:b2:3a:8e:6b:6a:2f:f5:c4:05:00:
        5c:5d:15:c5
-----BEGIN CERTIFICATE-----
MIID6zCCAtOgAwIBAgIUPMcYTFKDWw6J7XHtUAHV6JFqN0QwDQYJKoZIhvcNAQEL
BQAwgYQxCzAJBgNVBAYTAkJFMRcwFQYDVQQIDA5WbGFhbXMtQnJhYmFudDEbMBkG
A1UECgwSUG9ydGFnZS1uZyBEZW1vIENBMR4wHAYDVQQDDBVQaWV0ZXIgVmFuIGRl
biBBYmVlbGUxHzAdBgkqhkiG9w0BCQEWEHB2ZGFiZWVsQG1hYy5jb20wHhcNMjQw
ODE5MTU0MzAxWhcNMjcwODE5MTU0MzAxWjCBhDELMAkGA1UEBhMCQkUxFzAVBgNV
BAgMDlZsYWFtcy1CcmFiYW50MRswGQYDVQQKDBJQb3J0YWdlLW5nIERlbW8gQ0Ex
HjAcBgNVBAMMFVBpZXRlciBWYW4gZGVuIEFiZWVsZTEfMB0GCSqGSIb3DQEJARYQ
cHZkYWJlZWxAbWFjLmNvbTCCASIwDQYJKoZIhvcNAQEBBQADggEPADCCAQoCggEB
ANIR0mvTvPN7xdq2WhzMqBSnWbhAtOcKxpvqXx3BlceAv+WsTt70r5kaDC8iM+lC
WQEA/u9e1BV+WenEDQG3bx8oQb+1/JNoJag8yAZRSr0sZG1rx5W27kKKCkruDr66
DJZiGHtTZ9mWBBYS2CSd1gR9uXhVvah00zy4C2oxFK9L0nc6vj1rxNpJFwQqy/UH
L+KssdtWqIfXI0zuJxvsNofi+E7a6t2TM5uD1wTDhnDNOgkCw3GDXc/sAG7+2e/i
J8msnCiJ+O3bPXmOppWJjqp6hmEYXHh+Rakxwxjx3W0irlVVNRZ3VpOHt6ghXKys
Z3tLkA3zvM+MAsHE2pAFwvECAwEAAaNTMFEwHQYDVR0OBBYEFImv9xBK9is4NQNW
/40DYVM7Jsh9MB8GA1UdIwQYMBaAFImv9xBK9is4NQNW/40DYVM7Jsh9MA8GA1Ud
EwEB/wQFMAMBAf8wDQYJKoZIhvcNAQELBQADggEBAIqq9CtnMsgPTWdpqfP+OFLy
zqa5EU4UrW4NUiC4aD807R95Rc5s3eqYlm1xbmkby6ujYlj+W2ooEG8myuHjhjRI
YQ7MR6Y4FUrHvkyoMSm81TLLxtGuc40HlZbRYaMv4QqSeN06jO/K3+iZ1xPwDnPT
OTyohW3YBXaiO2JnK1tlSSWU0FyPsvUKF8TIvlFTrOnYjmuwYoNUSNenbSNYrcFX
D89wSjFTayHkAmq2/zjvel4ixDlR46TNNh5z8VbhIovBUeonVQOhmt1yoAx3M2J+
xMMaYi1/VbtywDIw4zxrRFmxuolHM3FtOkj5VT0quEUjsjqOa2ov9cQFAFxdFcU=
-----END CERTIFICATE-----
