Certificate:
    Data:
        Version: 3 (0x2)
        Serial Number:
            4f:7a:14:15:e4:c5:16:6b:56:4d:da:8c:71:20:63:d2:c6:87:8e:ce
        Signature Algorithm: sha256WithRSAEncryption
        Issuer: C=BE, ST=Vlaams-Brabant, O=Portage-ng Client-Server Demo CA, CN=Pieter Van den Abeele/emailAddress=pvdabeel@mac.com
        Validity
            Not Before: Aug 19 15:07:25 2024 GMT
            Not After : Aug 19 15:07:25 2025 GMT
        Subject: C=BE, ST=Vlaams-Brabant, L=Galmaarden, O=Portage-ng Demo Client cert, OU=Client, CN={macbook-pro\/imac-pro\/mac-pro\/vm-linux}.local/emailAddress=pvdabeel@mac.com
        Subject Public Key Info:
            Public Key Algorithm: rsaEncryption
                Public-Key: (2048 bit)
                Modulus:
                    00:f2:41:68:bf:db:57:a8:0a:b0:67:08:23:17:e0:
                    bf:34:94:30:6b:b7:dc:f6:b0:5b:ed:33:c9:3e:cd:
                    63:46:67:dc:ae:2d:7e:b5:d4:ba:66:a0:73:5a:3c:
                    ef:31:3c:48:79:1f:81:ed:b6:98:6c:f1:01:7e:e1:
                    77:ec:47:c6:7f:06:5e:5b:7c:9b:32:f7:32:24:4e:
                    ae:0f:57:4a:42:4e:d9:10:e2:e8:ae:82:04:e2:dc:
                    73:55:af:32:61:d7:65:99:68:c8:cd:ad:88:0f:6f:
                    b1:7d:b0:3d:b9:d0:de:45:c0:71:0b:1e:64:2b:3a:
                    05:3f:54:e1:e1:9d:bc:36:37:e1:03:47:45:2b:ee:
                    f4:9e:8a:46:d3:6d:91:2d:da:bd:fd:59:3a:e6:96:
                    d5:07:1b:0e:a3:5b:b8:74:87:30:85:27:83:19:12:
                    d1:93:4d:83:3e:27:46:65:12:04:36:64:7e:5c:15:
                    95:68:f2:d0:e7:b4:70:09:e8:9a:12:87:c3:42:16:
                    7d:22:61:e3:f7:b2:ac:6a:27:21:f7:da:7c:42:cd:
                    e3:93:86:13:cd:72:7e:d2:fb:b1:91:5a:7f:93:34:
                    3e:8d:c6:13:9d:d2:92:a6:a8:43:47:8a:75:77:e6:
                    59:a0:91:7e:20:56:dd:83:12:6a:05:86:80:a7:0b:
                    e9:9d
                Exponent: 65537 (0x10001)
        X509v3 extensions:
            X509v3 Basic Constraints: 
                CA:FALSE
            X509v3 Subject Key Identifier: 
                56:7F:39:86:99:9B:F7:92:72:AB:FB:CA:58:D2:BF:8B:AC:9C:AC:F5
            X509v3 Authority Key Identifier: 
                61:8E:A5:04:A4:94:1D:62:AC:C4:05:15:9C:A2:75:70:5C:41:AA:A9
    Signature Algorithm: sha256WithRSAEncryption
    Signature Value:
        2d:a3:56:d6:d7:f7:a7:35:ef:fd:0c:43:36:43:0a:be:a6:c9:
        7a:9a:3d:f1:a9:cb:fc:01:1e:0a:b1:7c:0e:f3:89:44:84:b4:
        68:ca:1f:8f:b7:61:ba:15:c2:2b:64:f0:1d:ff:46:18:87:a7:
        b9:2d:72:92:91:d8:73:50:58:f0:ca:7d:b0:72:55:61:45:ad:
        2c:46:1c:66:eb:8c:82:38:06:e2:31:b6:6b:06:b5:29:bd:79:
        5c:3f:97:d5:d2:66:e2:45:70:ba:f0:cd:9f:b6:37:51:c2:2e:
        f3:c0:f2:51:18:a3:f9:6c:ae:a4:cc:cc:e5:4e:bb:bb:14:44:
        91:d7:e2:74:57:bf:02:f2:0a:81:bf:69:42:8e:33:45:8a:b5:
        2a:b2:91:17:f3:36:26:a5:00:c9:0a:fe:1e:82:26:50:c2:5e:
        ce:ef:f3:1e:19:29:87:e3:77:2b:df:4c:8d:a8:bc:2d:66:29:
        a2:c9:07:16:aa:ed:c5:23:1e:f1:55:17:28:dd:90:7b:27:43:
        ab:1c:08:b7:a6:6c:6a:07:9f:ed:e0:03:e4:8a:6a:86:d8:b4:
        96:b7:cb:c5:11:de:06:a7:f3:89:77:85:ea:08:02:72:74:1e:
        0a:ee:92:d9:b4:c3:30:63:1c:05:b5:a0:c6:43:92:9c:37:12:
        f9:b0:15:c9
-----BEGIN CERTIFICATE-----
MIIEOjCCAyKgAwIBAgIUT3oUFeTFFmtWTdqMcSBj0saHjs4wDQYJKoZIhvcNAQEL
BQAwgZIxCzAJBgNVBAYTAkJFMRcwFQYDVQQIDA5WbGFhbXMtQnJhYmFudDEpMCcG
A1UECgwgUG9ydGFnZS1uZyBDbGllbnQtU2VydmVyIERlbW8gQ0ExHjAcBgNVBAMM
FVBpZXRlciBWYW4gZGVuIEFiZWVsZTEfMB0GCSqGSIb3DQEJARYQcHZkYWJlZWxA
bWFjLmNvbTAeFw0yNDA4MTkxNTA3MjVaFw0yNTA4MTkxNTA3MjVaMIHLMQswCQYD
VQQGEwJCRTEXMBUGA1UECAwOVmxhYW1zLUJyYWJhbnQxEzARBgNVBAcMCkdhbG1h
YXJkZW4xJDAiBgNVBAoMG1BvcnRhZ2UtbmcgRGVtbyBDbGllbnQgY2VydDEPMA0G
A1UECwwGQ2xpZW50MTYwNAYDVQQDDC17bWFjYm9vay1wcm8vaW1hYy1wcm8vbWFj
LXByby92bS1saW51eH0ubG9jYWwxHzAdBgkqhkiG9w0BCQEWEHB2ZGFiZWVsQG1h
Yy5jb20wggEiMA0GCSqGSIb3DQEBAQUAA4IBDwAwggEKAoIBAQDyQWi/21eoCrBn
CCMX4L80lDBrt9z2sFvtM8k+zWNGZ9yuLX611LpmoHNaPO8xPEh5H4Httphs8QF+
4XfsR8Z/Bl5bfJsy9zIkTq4PV0pCTtkQ4uiuggTi3HNVrzJh12WZaMjNrYgPb7F9
sD250N5FwHELHmQrOgU/VOHhnbw2N+EDR0Ur7vSeikbTbZEt2r39WTrmltUHGw6j
W7h0hzCFJ4MZEtGTTYM+J0ZlEgQ2ZH5cFZVo8tDntHAJ6JoSh8NCFn0iYeP3sqxq
JyH32nxCzeOThhPNcn7S+7GRWn+TND6NxhOd0pKmqENHinV35lmgkX4gVt2DEmoF
hoCnC+mdAgMBAAGjTTBLMAkGA1UdEwQCMAAwHQYDVR0OBBYEFFZ/OYaZm/eScqv7
yljSv4usnKz1MB8GA1UdIwQYMBaAFGGOpQSklB1irMQFFZyidXBcQaqpMA0GCSqG
SIb3DQEBCwUAA4IBAQAto1bW1/enNe/9DEM2Qwq+psl6mj3xqcv8AR4KsXwO84lE
hLRoyh+Pt2G6FcIrZPAd/0YYh6e5LXKSkdhzUFjwyn2wclVhRa0sRhxm64yCOAbi
MbZrBrUpvXlcP5fV0mbiRXC68M2ftjdRwi7zwPJRGKP5bK6kzMzlTru7FESR1+J0
V78C8gqBv2lCjjNFirUqspEX8zYmpQDJCv4egiZQwl7O7/MeGSmH43cr30yNqLwt
ZimiyQcWqu3FIx7xVRco3ZB7J0OrHAi3pmxqB5/t4APkimqG2LSWt8vFEd4Gp/OJ
d4XqCAJydB4K7pLZtMMwYxwFtaDGQ5KcNxL5sBXJ
-----END CERTIFICATE-----
