Certificate:
    Data:
        Version: 3 (0x2)
        Serial Number:
            50:e8:8d:31:e1:2c:9f:0b:b4:a1:ef:fa:35:f7:3e:85:1f:9b:1a:c9
        Signature Algorithm: sha256WithRSAEncryption
        Issuer: C=BE, ST=Vlaams-Brabant, O=Xanthis BV, CN=localhost/emailAddress=pvdabeel@mac.com
        Validity
            Not Before: Aug 16 22:58:00 2024 GMT
            Not After : Aug 16 22:58:00 2025 GMT
        Subject: C=BE, ST=Vlaams-Brabant, L=Galmaarden, O=Xanthis BV, OU=Client, CN=localhost/emailAddress=pvdabeel@mac.com
        Subject Public Key Info:
            Public Key Algorithm: rsaEncryption
                Public-Key: (2048 bit)
                Modulus:
                    00:be:46:5e:76:12:b3:6f:5b:c5:5f:88:cb:0d:1d:
                    a2:94:8d:8c:57:38:85:03:21:ce:21:ca:c7:aa:0f:
                    62:25:1f:47:9e:8d:6b:e5:32:f2:2b:16:f8:63:55:
                    99:0c:a0:5b:6f:33:fd:e6:78:ca:bb:10:ff:e2:7e:
                    78:8f:99:8b:88:84:2f:8c:e2:a6:26:a5:db:8c:17:
                    0a:a3:14:81:f9:d2:4f:30:9a:90:65:8b:42:d4:14:
                    cf:ad:01:36:c4:3f:92:63:5a:4e:fc:f3:e7:4c:48:
                    75:4d:62:34:76:7b:f3:d8:b5:46:ae:7c:6a:90:c4:
                    e5:09:c0:59:16:f2:b5:40:25:57:bf:2f:de:89:28:
                    ba:bb:99:03:b9:b9:5c:d4:b9:63:e7:3d:94:d0:01:
                    b5:b6:55:5b:a0:91:f7:16:29:06:b4:90:c9:4c:dd:
                    a3:23:c6:20:0c:1c:ac:0a:59:f8:de:78:28:a8:d9:
                    35:89:f2:26:ca:38:4b:cb:f9:b7:8c:e6:cb:14:e1:
                    10:35:8a:bd:5b:c3:6a:53:37:9e:d8:97:b5:6d:91:
                    77:6c:e2:52:3b:13:a5:a6:99:0e:88:09:8a:fe:c0:
                    3e:a0:66:0e:d2:9f:72:5b:6e:36:16:c7:a5:3d:a7:
                    8c:27:dd:3e:76:65:68:e2:62:ca:e1:8d:08:2a:c6:
                    c5:25
                Exponent: 65537 (0x10001)
        X509v3 extensions:
            X509v3 Basic Constraints: 
                CA:FALSE
            X509v3 Subject Key Identifier: 
                BB:BD:68:67:97:E6:3B:28:4B:74:2F:70:B3:53:C1:16:EF:DE:5C:5C
            X509v3 Authority Key Identifier: 
                7A:AE:AF:1A:79:4C:60:40:AB:BE:B6:CC:12:34:0F:8E:A9:E8:4E:09
    Signature Algorithm: sha256WithRSAEncryption
    Signature Value:
        38:7c:9e:55:7c:c8:9e:86:e2:45:47:6f:05:32:20:f3:ab:19:
        73:5b:24:85:16:ab:80:94:be:58:da:ea:1b:59:b1:d5:e0:7f:
        68:f2:91:c1:21:cd:7b:6a:3b:97:cd:ef:d5:84:a0:7f:da:74:
        7e:16:a7:5e:c0:74:fe:71:ed:fb:8b:b5:fc:f2:d0:79:09:7b:
        2d:fc:26:cb:5f:67:b1:18:74:74:9a:15:9c:92:8a:54:be:e5:
        fd:7e:8f:f5:4b:6d:3d:58:99:e5:0b:f3:57:36:57:d8:51:12:
        c7:e9:21:70:9b:0c:fd:50:69:75:28:14:ff:d7:4f:92:06:83:
        b0:43:d2:99:ef:ca:d2:3d:93:2f:8f:2a:17:06:e1:68:8e:80:
        9d:c7:73:f6:45:de:68:c0:2a:1a:fd:b2:40:f2:ea:b3:a6:a1:
        7c:b6:60:0c:e8:6f:61:d8:d7:d5:f4:17:72:a0:13:df:9b:a9:
        dd:d5:7d:84:5a:ac:e7:9f:b3:86:1c:bb:67:9b:13:00:06:d9:
        13:65:85:b2:0a:54:e2:bb:94:74:c4:a4:f8:9c:ff:c4:1e:8c:
        a7:2d:fe:54:35:57:8b:66:15:b8:4e:3b:cf:ab:f6:3a:46:e3:
        11:cd:5e:62:87:af:45:e8:3c:26:fe:1f:e9:28:d5:78:09:77:
        e1:98:7e:78
-----BEGIN CERTIFICATE-----
MIID4jCCAsqgAwIBAgIUUOiNMeEsnwu0oe/6Nfc+hR+bGskwDQYJKoZIhvcNAQEL
BQAwcDELMAkGA1UEBhMCQkUxFzAVBgNVBAgMDlZsYWFtcy1CcmFiYW50MRMwEQYD
VQQKDApYYW50aGlzIEJWMRIwEAYDVQQDDAlsb2NhbGhvc3QxHzAdBgkqhkiG9w0B
CQEWEHB2ZGFiZWVsQG1hYy5jb20wHhcNMjQwODE2MjI1ODAwWhcNMjUwODE2MjI1
ODAwWjCBljELMAkGA1UEBhMCQkUxFzAVBgNVBAgMDlZsYWFtcy1CcmFiYW50MRMw
EQYDVQQHDApHYWxtYWFyZGVuMRMwEQYDVQQKDApYYW50aGlzIEJWMQ8wDQYDVQQL
DAZDbGllbnQxEjAQBgNVBAMMCWxvY2FsaG9zdDEfMB0GCSqGSIb3DQEJARYQcHZk
YWJlZWxAbWFjLmNvbTCCASIwDQYJKoZIhvcNAQEBBQADggEPADCCAQoCggEBAL5G
XnYSs29bxV+Iyw0dopSNjFc4hQMhziHKx6oPYiUfR56Na+Uy8isW+GNVmQygW28z
/eZ4yrsQ/+J+eI+Zi4iEL4zipial24wXCqMUgfnSTzCakGWLQtQUz60BNsQ/kmNa
Tvzz50xIdU1iNHZ789i1Rq58apDE5QnAWRbytUAlV78v3okouruZA7m5XNS5Y+c9
lNABtbZVW6CR9xYpBrSQyUzdoyPGIAwcrApZ+N54KKjZNYnyJso4S8v5t4zmyxTh
EDWKvVvDalM3ntiXtW2Rd2ziUjsTpaaZDogJiv7APqBmDtKfcltuNhbHpT2njCfd
PnZlaOJiyuGNCCrGxSUCAwEAAaNNMEswCQYDVR0TBAIwADAdBgNVHQ4EFgQUu71o
Z5fmOyhLdC9ws1PBFu/eXFwwHwYDVR0jBBgwFoAUeq6vGnlMYECrvrbMEjQPjqno
TgkwDQYJKoZIhvcNAQELBQADggEBADh8nlV8yJ6G4kVHbwUyIPOrGXNbJIUWq4CU
vlja6htZsdXgf2jykcEhzXtqO5fN79WEoH/adH4Wp17AdP5x7fuLtfzy0HkJey38
JstfZ7EYdHSaFZySilS+5f1+j/VLbT1YmeUL81c2V9hREsfpIXCbDP1QaXUoFP/X
T5IGg7BD0pnvytI9ky+PKhcG4WiOgJ3Hc/ZF3mjAKhr9skDy6rOmoXy2YAzob2HY
19X0F3KgE9+bqd3VfYRarOefs4Ycu2ebEwAG2RNlhbIKVOK7lHTEpPic/8QejKct
/lQ1V4tmFbhOO8+r9jpG4xHNXmKHr0XoPCb+H+ko1XgJd+GYfng=
-----END CERTIFICATE-----
