Certificate:
    Data:
        Version: 3 (0x2)
        Serial Number:
            3c:c7:18:4c:52:83:5b:0e:89:ed:71:ed:50:01:d5:e8:91:6a:37:45
        Signature Algorithm: sha256WithRSAEncryption
        Issuer: C=BE, ST=Vlaams-Brabant, O=Portage-ng Demo CA, CN=Pieter Van den Abeele/emailAddress=pvdabeel@mac.com
        Validity
            Not Before: Aug 19 15:44:24 2024 GMT
            Not After : Aug 19 15:44:24 2025 GMT
        Subject: C=BE, ST=Vlaams-Brabant, L=Galmaarden, O=Portage-ng Demo Client Cert, OU=Client - imac-pro.local, CN=imac-pro.local/emailAddress=pvdabeel@mac.com
        Subject Public Key Info:
            Public Key Algorithm: rsaEncryption
                Public-Key: (2048 bit)
                Modulus:
                    00:95:9e:05:17:37:f3:97:da:0c:99:21:d3:09:0a:
                    35:27:5d:f7:76:7b:25:24:7d:6c:02:46:b5:68:05:
                    d1:a4:4d:ed:ec:ab:0a:46:f6:70:c5:0c:e6:14:94:
                    e7:25:22:6c:13:fc:20:a3:06:32:b8:69:4a:08:4a:
                    b8:59:87:6a:be:79:93:3b:43:06:23:25:04:e9:13:
                    d4:5d:bb:35:27:e0:02:3a:1d:fb:6f:65:a3:6d:09:
                    0e:66:91:14:f3:6f:d3:63:5e:6e:68:d4:95:6b:0f:
                    56:6d:f5:49:37:f8:4d:11:d9:fb:66:38:0f:4f:5d:
                    b2:5f:5b:af:4d:ce:20:a0:36:87:68:17:c2:62:2f:
                    89:49:f9:56:c0:0c:bb:ee:24:21:7a:2b:fb:80:39:
                    ee:36:13:44:49:ad:7b:06:98:de:85:d6:ad:0b:0d:
                    0d:83:dc:49:01:0c:d6:42:fa:a2:1b:e6:6f:d7:79:
                    d5:40:88:61:37:3d:8b:8a:60:d8:e4:93:d9:5f:fe:
                    37:eb:25:92:e5:34:d3:02:03:dd:ee:20:b2:24:8b:
                    31:d6:e1:65:1b:c3:1e:82:a9:a3:9b:05:8d:c8:83:
                    fa:e0:8d:7e:88:07:7f:85:03:fc:e9:93:5a:c7:54:
                    53:56:01:83:af:17:24:b3:c5:38:b9:98:84:cf:51:
                    25:8b
                Exponent: 65537 (0x10001)
        X509v3 extensions:
            X509v3 Basic Constraints: 
                CA:FALSE
            X509v3 Subject Key Identifier: 
                F7:AD:0F:B1:DD:AD:73:AD:11:18:80:33:8A:8E:A5:E4:E2:04:12:4B
            X509v3 Authority Key Identifier: 
                89:AF:F7:10:4A:F6:2B:38:35:03:56:FF:8D:03:61:53:3B:26:C8:7D
    Signature Algorithm: sha256WithRSAEncryption
    Signature Value:
        00:13:a6:8b:06:64:9a:97:53:34:bd:1a:ed:0f:11:fe:16:d9:
        8e:33:3d:d5:b4:e5:08:b8:5f:07:24:82:fe:1f:eb:0f:62:2e:
        c9:70:e3:e8:89:7e:ec:d0:4a:53:b7:88:8d:7d:20:20:35:bb:
        36:27:55:56:14:f0:6f:6a:f8:79:f5:61:3c:7f:00:5d:3e:1c:
        e7:9d:71:39:71:57:b0:03:5b:5a:02:7f:4f:1e:2f:a6:d6:83:
        7a:3c:9d:d1:d2:c9:0b:cf:42:ed:25:9d:69:b7:8b:b4:f9:9c:
        29:df:b1:4c:85:e3:b2:d6:ca:71:f2:34:07:98:dd:2c:58:5a:
        cd:2a:fa:bc:88:60:2c:2c:fc:71:58:70:04:a6:a5:01:4e:60:
        52:8d:b6:a4:b4:b2:72:3b:32:92:4e:21:d2:f6:d3:eb:da:cf:
        e0:4d:59:3d:38:94:47:66:41:37:47:44:28:10:e1:56:e3:81:
        89:c7:69:6d:16:89:ba:c8:16:2d:c7:5a:04:50:e4:23:90:ce:
        52:2e:f6:06:f5:00:1e:e1:0b:c9:ff:d7:22:6a:00:76:8b:f5:
        dc:b0:10:6b:3c:0a:24:71:c9:36:28:62:0d:8b:7f:c1:36:e2:
        b5:b0:69:71:37:9a:69:00:72:63:9b:6f:01:91:3b:4d:27:fe:
        bd:58:1e:03
-----BEGIN CERTIFICATE-----
MIIEHjCCAwagAwIBAgIUPMcYTFKDWw6J7XHtUAHV6JFqN0UwDQYJKoZIhvcNAQEL
BQAwgYQxCzAJBgNVBAYTAkJFMRcwFQYDVQQIDA5WbGFhbXMtQnJhYmFudDEbMBkG
A1UECgwSUG9ydGFnZS1uZyBEZW1vIENBMR4wHAYDVQQDDBVQaWV0ZXIgVmFuIGRl
biBBYmVlbGUxHzAdBgkqhkiG9w0BCQEWEHB2ZGFiZWVsQG1hYy5jb20wHhcNMjQw
ODE5MTU0NDI0WhcNMjUwODE5MTU0NDI0WjCBvTELMAkGA1UEBhMCQkUxFzAVBgNV
BAgMDlZsYWFtcy1CcmFiYW50MRMwEQYDVQQHDApHYWxtYWFyZGVuMSQwIgYDVQQK
DBtQb3J0YWdlLW5nIERlbW8gQ2xpZW50IENlcnQxIDAeBgNVBAsMF0NsaWVudCAt
IGltYWMtcHJvLmxvY2FsMRcwFQYDVQQDDA5pbWFjLXByby5sb2NhbDEfMB0GCSqG
SIb3DQEJARYQcHZkYWJlZWxAbWFjLmNvbTCCASIwDQYJKoZIhvcNAQEBBQADggEP
ADCCAQoCggEBAJWeBRc385faDJkh0wkKNSdd93Z7JSR9bAJGtWgF0aRN7eyrCkb2
cMUM5hSU5yUibBP8IKMGMrhpSghKuFmHar55kztDBiMlBOkT1F27NSfgAjod+29l
o20JDmaRFPNv02NebmjUlWsPVm31STf4TRHZ+2Y4D09dsl9br03OIKA2h2gXwmIv
iUn5VsAMu+4kIXor+4A57jYTREmtewaY3oXWrQsNDYPcSQEM1kL6ohvmb9d51UCI
YTc9i4pg2OST2V/+N+slkuU00wID3e4gsiSLMdbhZRvDHoKpo5sFjciD+uCNfogH
f4UD/OmTWsdUU1YBg68XJLPFOLmYhM9RJYsCAwEAAaNNMEswCQYDVR0TBAIwADAd
BgNVHQ4EFgQU960Psd2tc60RGIAzio6l5OIEEkswHwYDVR0jBBgwFoAUia/3EEr2
Kzg1A1b/jQNhUzsmyH0wDQYJKoZIhvcNAQELBQADggEBAAATposGZJqXUzS9Gu0P
Ef4W2Y4zPdW05Qi4Xwckgv4f6w9iLslw4+iJfuzQSlO3iI19ICA1uzYnVVYU8G9q
+Hn1YTx/AF0+HOedcTlxV7ADW1oCf08eL6bWg3o8ndHSyQvPQu0lnWm3i7T5nCnf
sUyF47LWynHyNAeY3SxYWs0q+ryIYCws/HFYcASmpQFOYFKNtqS0snI7MpJOIdL2
0+vaz+BNWT04lEdmQTdHRCgQ4VbjgYnHaW0WibrIFi3HWgRQ5COQzlIu9gb1AB7h
C8n/1yJqAHaL9dywEGs8CiRxyTYoYg2Lf8E24rWwaXE3mmkAcmObbwGRO00n/r1Y
HgM=
-----END CERTIFICATE-----
