Certificate:
    Data:
        Version: 3 (0x2)
        Serial Number:
            3c:c7:18:4c:52:83:5b:0e:89:ed:71:ed:50:01:d5:e8:91:6a:37:49
        Signature Algorithm: sha256WithRSAEncryption
        Issuer: C=BE, ST=Vlaams-Brabant, O=Portage-ng Demo CA, CN=Pieter Van den Abeele/emailAddress=pvdabeel@mac.com
        Validity
            Not Before: Aug 19 16:51:04 2024 GMT
            Not After : Aug 19 16:51:04 2025 GMT
        Subject: C=BE, ST=Vlaams-Brabant, L=Galmaarden, O=Portage-ng Demo Server Cert, OU=Server - imac-pro.local, CN=imac-pro.local/emailAddress=pvdabeel@mac.com
        Subject Public Key Info:
            Public Key Algorithm: rsaEncryption
                Public-Key: (2048 bit)
                Modulus:
                    00:aa:58:9f:6f:2c:29:82:b4:9a:51:11:cc:5e:0f:
                    cc:d1:fd:db:07:19:b4:94:54:87:50:7a:86:fa:37:
                    b2:e8:e1:00:c4:73:66:f1:1e:2e:cc:85:8f:ec:87:
                    5e:df:62:c1:2f:31:f8:f6:b7:81:1f:c2:89:32:ae:
                    18:7e:16:19:db:78:0b:4a:24:77:eb:5f:eb:c2:f5:
                    b5:af:83:a0:31:d7:2d:ac:24:1d:0c:e3:60:39:44:
                    ad:75:40:00:98:5a:dd:20:7b:95:81:04:67:34:0a:
                    2a:95:76:da:31:77:93:1f:59:1b:24:26:84:c2:83:
                    ed:49:d6:a1:43:39:33:b8:ef:ba:66:62:5d:30:fc:
                    0c:2a:a4:50:8a:ec:28:7f:54:1c:e1:a7:18:0c:19:
                    eb:f5:be:8e:3b:1d:e7:82:6b:99:81:2a:c3:36:9c:
                    7a:f4:99:02:07:e2:7c:39:2f:03:4e:5e:e0:9d:ec:
                    7c:eb:34:55:bf:b3:00:fa:f1:46:75:ff:2a:cc:d6:
                    19:7a:8b:c2:97:55:a6:8e:00:5a:ba:94:30:62:ff:
                    a3:87:6e:dc:69:60:14:3d:db:f0:b8:8a:c7:d1:64:
                    6d:7a:96:06:4d:f7:73:fe:68:4f:ba:b0:19:70:2c:
                    30:18:16:68:94:a4:32:34:0c:b9:18:53:1f:50:8c:
                    e5:0f
                Exponent: 65537 (0x10001)
        X509v3 extensions:
            X509v3 Basic Constraints: 
                CA:FALSE
            X509v3 Subject Key Identifier: 
                D1:8E:DF:53:97:5E:17:0E:62:B8:EC:F4:20:3D:73:3E:06:45:91:EA
            X509v3 Authority Key Identifier: 
                89:AF:F7:10:4A:F6:2B:38:35:03:56:FF:8D:03:61:53:3B:26:C8:7D
    Signature Algorithm: sha256WithRSAEncryption
    Signature Value:
        13:7c:32:32:bd:3d:f7:07:df:05:07:1c:f6:e7:73:36:ca:94:
        2c:d7:10:64:c0:7d:1c:ad:fb:68:c3:26:70:62:0a:f1:67:b4:
        37:1d:ff:69:13:65:c6:2e:81:8e:19:b8:96:75:1d:c0:40:6b:
        cf:d2:13:c5:ae:56:98:8c:c6:b8:df:05:71:82:98:28:1e:6e:
        31:4b:f1:d8:a5:51:0a:76:e4:8c:ab:2c:4a:2f:8c:96:f3:55:
        a5:3e:50:4b:04:26:32:13:27:bc:2f:f5:5b:68:38:00:3d:15:
        d8:c1:75:58:c0:2d:c9:7f:cd:d7:50:e7:c1:39:e9:40:e6:9f:
        da:db:3e:ef:c8:d0:f2:08:01:91:e7:1f:e9:45:56:69:8e:ab:
        cd:08:e4:70:67:94:6b:0a:3b:3f:a0:15:54:15:3e:64:d1:61:
        ef:1a:2a:2f:34:f9:c7:40:5d:46:d2:d1:95:1e:07:4b:9d:93:
        6d:06:8b:3c:7a:55:9b:60:86:90:62:8d:4a:67:0a:4d:6d:38:
        b2:6d:71:d1:f2:27:f4:29:b4:a1:55:a9:04:2a:9a:5a:5a:d4:
        26:7a:75:c7:9e:92:26:10:54:cf:d7:86:68:d8:96:e6:33:85:
        f8:0e:79:21:bb:ae:bc:9d:92:25:83:25:94:05:f1:0d:7e:e0:
        79:15:2c:17
-----BEGIN CERTIFICATE-----
MIIEHjCCAwagAwIBAgIUPMcYTFKDWw6J7XHtUAHV6JFqN0kwDQYJKoZIhvcNAQEL
BQAwgYQxCzAJBgNVBAYTAkJFMRcwFQYDVQQIDA5WbGFhbXMtQnJhYmFudDEbMBkG
A1UECgwSUG9ydGFnZS1uZyBEZW1vIENBMR4wHAYDVQQDDBVQaWV0ZXIgVmFuIGRl
biBBYmVlbGUxHzAdBgkqhkiG9w0BCQEWEHB2ZGFiZWVsQG1hYy5jb20wHhcNMjQw
ODE5MTY1MTA0WhcNMjUwODE5MTY1MTA0WjCBvTELMAkGA1UEBhMCQkUxFzAVBgNV
BAgMDlZsYWFtcy1CcmFiYW50MRMwEQYDVQQHDApHYWxtYWFyZGVuMSQwIgYDVQQK
DBtQb3J0YWdlLW5nIERlbW8gU2VydmVyIENlcnQxIDAeBgNVBAsMF1NlcnZlciAt
IGltYWMtcHJvLmxvY2FsMRcwFQYDVQQDDA5pbWFjLXByby5sb2NhbDEfMB0GCSqG
SIb3DQEJARYQcHZkYWJlZWxAbWFjLmNvbTCCASIwDQYJKoZIhvcNAQEBBQADggEP
ADCCAQoCggEBAKpYn28sKYK0mlERzF4PzNH92wcZtJRUh1B6hvo3sujhAMRzZvEe
LsyFj+yHXt9iwS8x+Pa3gR/CiTKuGH4WGdt4C0okd+tf68L1ta+DoDHXLawkHQzj
YDlErXVAAJha3SB7lYEEZzQKKpV22jF3kx9ZGyQmhMKD7UnWoUM5M7jvumZiXTD8
DCqkUIrsKH9UHOGnGAwZ6/W+jjsd54JrmYEqwzacevSZAgfifDkvA05e4J3sfOs0
Vb+zAPrxRnX/KszWGXqLwpdVpo4AWrqUMGL/o4du3GlgFD3b8LiKx9FkbXqWBk33
c/5oT7qwGXAsMBgWaJSkMjQMuRhTH1CM5Q8CAwEAAaNNMEswCQYDVR0TBAIwADAd
BgNVHQ4EFgQU0Y7fU5deFw5iuOz0ID1zPgZFkeowHwYDVR0jBBgwFoAUia/3EEr2
Kzg1A1b/jQNhUzsmyH0wDQYJKoZIhvcNAQELBQADggEBABN8MjK9PfcH3wUHHPbn
czbKlCzXEGTAfRyt+2jDJnBiCvFntDcd/2kTZcYugY4ZuJZ1HcBAa8/SE8WuVpiM
xrjfBXGCmCgebjFL8dilUQp25IyrLEovjJbzVaU+UEsEJjITJ7wv9VtoOAA9FdjB
dVjALcl/zddQ58E56UDmn9rbPu/I0PIIAZHnH+lFVmmOq80I5HBnlGsKOz+gFVQV
PmTRYe8aKi80+cdAXUbS0ZUeB0udk20Gizx6VZtghpBijUpnCk1tOLJtcdHyJ/Qp
tKFVqQQqmlpa1CZ6dceekiYQVM/XhmjYluYzhfgOeSG7rrydkiWDJZQF8Q1+4HkV
LBc=
-----END CERTIFICATE-----
