Certificate:
    Data:
        Version: 3 (0x2)
        Serial Number:
            3c:c7:18:4c:52:83:5b:0e:89:ed:71:ed:50:01:d5:e8:91:6a:37:4a
        Signature Algorithm: sha256WithRSAEncryption
        Issuer: C=BE, ST=Vlaams-Brabant, O=Portage-ng Demo CA, CN=Pieter Van den Abeele/emailAddress=pvdabeel@mac.com
        Validity
            Not Before: Aug 19 16:52:40 2024 GMT
            Not After : Aug 19 16:52:40 2025 GMT
        Subject: C=BE, ST=Vlaams-Brabant, L=Galmaarden, O=Portage-ng Demo Server Cert, OU=Server - mac-pro.local, CN=mac-pro.local/emailAddress=pvdabeel@mac.com
        Subject Public Key Info:
            Public Key Algorithm: rsaEncryption
                Public-Key: (2048 bit)
                Modulus:
                    00:e0:87:54:b1:aa:b5:b1:de:90:35:e0:40:f5:14:
                    fc:4e:27:72:74:90:e6:c7:82:c3:b6:58:b6:72:cd:
                    ad:d0:31:31:65:82:19:cb:69:95:41:77:d8:75:5c:
                    70:2e:e5:08:8b:e6:2e:24:f6:b6:db:45:0f:18:c5:
                    54:09:09:73:de:8c:03:24:7c:64:2e:bb:fa:98:6a:
                    74:75:79:49:c9:63:59:13:28:1c:74:27:72:55:18:
                    42:d3:38:c6:92:1d:8c:b5:d5:f2:cf:cc:e5:78:c1:
                    63:7c:9b:ea:58:6c:12:76:94:6b:80:38:a1:25:e2:
                    67:19:1e:69:44:b0:7f:e8:d0:52:30:d6:8e:e2:6b:
                    20:84:73:47:fa:0d:4c:a1:15:a2:ac:68:da:01:62:
                    1f:bc:35:87:82:fc:72:ce:db:65:ea:49:dc:8b:55:
                    02:97:92:9b:a8:7e:f7:e1:9d:92:de:67:5f:4e:b2:
                    89:84:5d:db:98:a1:fa:2e:85:a7:b1:e8:a4:6c:42:
                    5c:2d:28:35:d0:09:5a:2c:42:b5:eb:fe:29:f3:66:
                    42:2a:27:3e:1b:fc:a9:3a:15:35:81:38:39:c4:db:
                    93:c0:db:9c:2e:f8:c3:bb:aa:0e:86:7d:9a:2d:c6:
                    41:95:fd:4b:20:f1:2d:6a:0d:66:cf:1b:aa:e2:75:
                    13:89
                Exponent: 65537 (0x10001)
        X509v3 extensions:
            X509v3 Basic Constraints: 
                CA:FALSE
            X509v3 Subject Key Identifier: 
                9C:1F:B2:BF:05:CC:33:35:BC:66:8C:72:00:58:CD:C0:CD:F8:29:BD
            X509v3 Authority Key Identifier: 
                89:AF:F7:10:4A:F6:2B:38:35:03:56:FF:8D:03:61:53:3B:26:C8:7D
    Signature Algorithm: sha256WithRSAEncryption
    Signature Value:
        b0:a6:52:25:c1:ac:28:04:b0:4c:b6:46:01:8c:ba:10:d0:ed:
        cb:d2:d6:35:53:1b:64:e2:cd:95:89:f7:d0:53:fa:b5:d9:6a:
        f4:35:d8:3b:22:31:e8:0d:b7:d8:a7:a0:e3:13:0c:5e:85:13:
        ef:38:11:09:c1:04:8e:a1:9c:c7:71:92:ef:10:ca:14:21:11:
        d6:6c:54:38:be:e4:7a:d6:0b:2a:1c:f2:81:d8:df:b3:e7:f6:
        69:15:28:ca:a2:8e:7f:f7:cb:17:3f:83:8c:f8:9c:bb:80:06:
        c4:a6:78:57:24:62:7b:fb:f9:85:d2:9d:48:ee:f3:d1:9c:9d:
        ba:a8:7f:3a:7c:22:2c:9d:76:91:a0:d0:75:c8:72:81:fa:02:
        d6:49:6e:48:19:ce:a8:30:b5:9c:5a:89:19:5c:d7:fd:45:71:
        81:9b:6a:b3:1c:58:f9:8a:29:3b:a4:78:33:d9:f0:56:ca:9d:
        70:34:88:d7:cd:7b:4f:af:ac:f0:7f:70:98:49:c4:ad:87:08:
        39:41:6e:58:a9:b5:75:61:82:ea:ce:4a:c1:d4:9e:e0:19:c9:
        e3:1f:35:a9:a2:59:ed:b1:47:10:55:b9:8f:d4:5f:a7:0c:f0:
        df:4a:03:07:d3:d6:2f:5a:f2:58:8f:57:5e:a3:11:60:3d:0d:
        26:a2:5a:75
-----BEGIN CERTIFICATE-----
MIIEHDCCAwSgAwIBAgIUPMcYTFKDWw6J7XHtUAHV6JFqN0owDQYJKoZIhvcNAQEL
BQAwgYQxCzAJBgNVBAYTAkJFMRcwFQYDVQQIDA5WbGFhbXMtQnJhYmFudDEbMBkG
A1UECgwSUG9ydGFnZS1uZyBEZW1vIENBMR4wHAYDVQQDDBVQaWV0ZXIgVmFuIGRl
biBBYmVlbGUxHzAdBgkqhkiG9w0BCQEWEHB2ZGFiZWVsQG1hYy5jb20wHhcNMjQw
ODE5MTY1MjQwWhcNMjUwODE5MTY1MjQwWjCBuzELMAkGA1UEBhMCQkUxFzAVBgNV
BAgMDlZsYWFtcy1CcmFiYW50MRMwEQYDVQQHDApHYWxtYWFyZGVuMSQwIgYDVQQK
DBtQb3J0YWdlLW5nIERlbW8gU2VydmVyIENlcnQxHzAdBgNVBAsMFlNlcnZlciAt
IG1hYy1wcm8ubG9jYWwxFjAUBgNVBAMMDW1hYy1wcm8ubG9jYWwxHzAdBgkqhkiG
9w0BCQEWEHB2ZGFiZWVsQG1hYy5jb20wggEiMA0GCSqGSIb3DQEBAQUAA4IBDwAw
ggEKAoIBAQDgh1SxqrWx3pA14ED1FPxOJ3J0kObHgsO2WLZyza3QMTFlghnLaZVB
d9h1XHAu5QiL5i4k9rbbRQ8YxVQJCXPejAMkfGQuu/qYanR1eUnJY1kTKBx0J3JV
GELTOMaSHYy11fLPzOV4wWN8m+pYbBJ2lGuAOKEl4mcZHmlEsH/o0FIw1o7iayCE
c0f6DUyhFaKsaNoBYh+8NYeC/HLO22XqSdyLVQKXkpuofvfhnZLeZ19OsomEXduY
ofouhaex6KRsQlwtKDXQCVosQrXr/inzZkIqJz4b/Kk6FTWBODnE25PA25wu+MO7
qg6GfZotxkGV/Usg8S1qDWbPG6ridROJAgMBAAGjTTBLMAkGA1UdEwQCMAAwHQYD
VR0OBBYEFJwfsr8FzDM1vGaMcgBYzcDN+Cm9MB8GA1UdIwQYMBaAFImv9xBK9is4
NQNW/40DYVM7Jsh9MA0GCSqGSIb3DQEBCwUAA4IBAQCwplIlwawoBLBMtkYBjLoQ
0O3L0tY1Uxtk4s2ViffQU/q12Wr0Ndg7IjHoDbfYp6DjEwxehRPvOBEJwQSOoZzH
cZLvEMoUIRHWbFQ4vuR61gsqHPKB2N+z5/ZpFSjKoo5/98sXP4OM+Jy7gAbEpnhX
JGJ7+/mF0p1I7vPRnJ26qH86fCIsnXaRoNB1yHKB+gLWSW5IGc6oMLWcWokZXNf9
RXGBm2qzHFj5iik7pHgz2fBWyp1wNIjXzXtPr6zwf3CYScSthwg5QW5YqbV1YYLq
zkrB1J7gGcnjHzWpolntsUcQVbmP1F+nDPDfSgMH09YvWvJYj1deoxFgPQ0molp1
-----END CERTIFICATE-----
