Certificate:
    Data:
        Version: 3 (0x2)
        Serial Number:
            3c:c7:18:4c:52:83:5b:0e:89:ed:71:ed:50:01:d5:e8:91:6a:37:46
        Signature Algorithm: sha256WithRSAEncryption
        Issuer: C=BE, ST=Vlaams-Brabant, O=Portage-ng Demo CA, CN=Pieter Van den Abeele/emailAddress=pvdabeel@mac.com
        Validity
            Not Before: Aug 19 15:47:24 2024 GMT
            Not After : Aug 19 15:47:24 2025 GMT
        Subject: C=BE, ST=Vlaams-Brabant, L=Galmaarden, O=Portage-ng Demo Client Cert, OU=Client - mac-pro.local, CN=mac-pro.local/emailAddress=pvdabeel@mac.com
        Subject Public Key Info:
            Public Key Algorithm: rsaEncryption
                Public-Key: (2048 bit)
                Modulus:
                    00:99:fb:99:4b:c7:68:de:38:3e:0b:d5:d7:f6:d8:
                    98:59:6b:20:c0:02:9b:d0:7b:5f:d5:bc:fb:7f:ee:
                    c7:a9:ef:58:2c:a2:db:94:43:8f:61:77:57:de:52:
                    33:7f:d5:3b:84:2a:b3:c7:7a:8c:b2:12:46:b3:32:
                    5b:72:e2:e9:04:e7:46:51:42:d7:db:26:c9:69:89:
                    28:49:a1:be:1f:52:0e:b3:7c:67:b8:ef:7b:88:f4:
                    12:e4:5e:e1:02:11:42:46:9b:4c:af:e2:17:c8:13:
                    4f:d9:1a:13:74:a2:7b:0f:bd:d4:0c:a6:84:82:54:
                    e6:cd:bc:34:49:5d:ec:27:03:97:b1:4e:69:bb:ce:
                    02:1d:1f:9c:4c:7b:5f:d5:0b:c6:86:e3:e4:a4:f0:
                    df:c4:d8:01:4e:e6:b3:b5:b3:32:a3:77:36:7e:be:
                    a4:74:82:5d:3b:58:cf:aa:d0:db:02:09:66:a8:7f:
                    d5:1d:dd:74:42:df:03:f4:20:ff:fc:11:73:32:54:
                    a4:e8:c2:c0:c6:e4:e7:63:eb:7d:19:a7:6f:27:9e:
                    92:f4:84:31:28:3a:03:48:01:27:5a:8f:95:ef:16:
                    c8:ef:63:93:70:85:1e:a6:20:3e:b8:bc:25:fc:c9:
                    d4:c3:0c:56:49:d3:39:6e:5a:4a:75:77:35:a3:32:
                    cd:eb
                Exponent: 65537 (0x10001)
        X509v3 extensions:
            X509v3 Basic Constraints: 
                CA:FALSE
            X509v3 Subject Key Identifier: 
                6B:CD:4F:D6:1C:21:A2:50:AD:15:26:A7:C2:A5:61:33:BF:A7:0C:C6
            X509v3 Authority Key Identifier: 
                89:AF:F7:10:4A:F6:2B:38:35:03:56:FF:8D:03:61:53:3B:26:C8:7D
    Signature Algorithm: sha256WithRSAEncryption
    Signature Value:
        4a:c0:91:7f:7b:7c:12:64:af:73:e7:3f:f0:58:19:ab:e8:2c:
        e6:f9:75:4a:3d:7f:92:c5:2f:7a:27:63:94:5f:c4:32:fb:86:
        c6:40:f0:ca:05:0d:3b:f9:49:ad:6f:8b:80:41:12:3d:ae:97:
        3f:94:c2:13:3f:3c:d9:65:3e:f9:79:11:16:bd:ca:f4:7b:f7:
        53:f7:3b:49:b1:fc:63:38:a5:e2:b5:25:4e:d6:c6:81:24:49:
        91:52:9e:53:e4:30:54:57:28:b5:3d:64:20:ca:3e:70:0f:71:
        17:df:18:06:72:b3:e5:4d:86:dc:0b:a0:94:ae:18:69:a5:6e:
        35:a1:52:2f:d1:0d:a7:f0:ff:23:de:6e:2d:54:f6:db:6b:35:
        00:f1:25:c6:86:9a:fb:e8:7f:b4:79:f0:f4:fc:b3:84:7e:fe:
        9b:46:f5:bc:9b:f6:c0:44:8b:5f:97:30:d2:c4:f1:76:ab:69:
        c6:9e:ae:e1:55:be:f5:0b:27:06:41:fd:e9:31:1d:4d:77:b7:
        0f:94:cf:4b:bf:a2:7e:3f:b3:be:6a:5b:c2:bf:b2:3d:ce:42:
        7f:e8:29:c1:a4:bb:02:ac:45:7c:d8:a2:85:2e:fa:79:34:cb:
        24:a2:7d:f2:64:a6:28:e2:ea:73:b7:f0:be:ca:4d:2c:66:fa:
        ac:71:32:4e
-----BEGIN CERTIFICATE-----
MIIEHDCCAwSgAwIBAgIUPMcYTFKDWw6J7XHtUAHV6JFqN0YwDQYJKoZIhvcNAQEL
BQAwgYQxCzAJBgNVBAYTAkJFMRcwFQYDVQQIDA5WbGFhbXMtQnJhYmFudDEbMBkG
A1UECgwSUG9ydGFnZS1uZyBEZW1vIENBMR4wHAYDVQQDDBVQaWV0ZXIgVmFuIGRl
biBBYmVlbGUxHzAdBgkqhkiG9w0BCQEWEHB2ZGFiZWVsQG1hYy5jb20wHhcNMjQw
ODE5MTU0NzI0WhcNMjUwODE5MTU0NzI0WjCBuzELMAkGA1UEBhMCQkUxFzAVBgNV
BAgMDlZsYWFtcy1CcmFiYW50MRMwEQYDVQQHDApHYWxtYWFyZGVuMSQwIgYDVQQK
DBtQb3J0YWdlLW5nIERlbW8gQ2xpZW50IENlcnQxHzAdBgNVBAsMFkNsaWVudCAt
IG1hYy1wcm8ubG9jYWwxFjAUBgNVBAMMDW1hYy1wcm8ubG9jYWwxHzAdBgkqhkiG
9w0BCQEWEHB2ZGFiZWVsQG1hYy5jb20wggEiMA0GCSqGSIb3DQEBAQUAA4IBDwAw
ggEKAoIBAQCZ+5lLx2jeOD4L1df22JhZayDAApvQe1/VvPt/7sep71gsotuUQ49h
d1feUjN/1TuEKrPHeoyyEkazMlty4ukE50ZRQtfbJslpiShJob4fUg6zfGe473uI
9BLkXuECEUJGm0yv4hfIE0/ZGhN0onsPvdQMpoSCVObNvDRJXewnA5exTmm7zgId
H5xMe1/VC8aG4+Sk8N/E2AFO5rO1szKjdzZ+vqR0gl07WM+q0NsCCWaof9Ud3XRC
3wP0IP/8EXMyVKTowsDG5Odj630Zp28nnpL0hDEoOgNIASdaj5XvFsjvY5NwhR6m
ID64vCX8ydTDDFZJ0zluWkp1dzWjMs3rAgMBAAGjTTBLMAkGA1UdEwQCMAAwHQYD
VR0OBBYEFGvNT9YcIaJQrRUmp8KlYTO/pwzGMB8GA1UdIwQYMBaAFImv9xBK9is4
NQNW/40DYVM7Jsh9MA0GCSqGSIb3DQEBCwUAA4IBAQBKwJF/e3wSZK9z5z/wWBmr
6Czm+XVKPX+SxS96J2OUX8Qy+4bGQPDKBQ07+Umtb4uAQRI9rpc/lMITPzzZZT75
eREWvcr0e/dT9ztJsfxjOKXitSVO1saBJEmRUp5T5DBUVyi1PWQgyj5wD3EX3xgG
crPlTYbcC6CUrhhppW41oVIv0Q2n8P8j3m4tVPbbazUA8SXGhpr76H+0efD0/LOE
fv6bRvW8m/bARItflzDSxPF2q2nGnq7hVb71CycGQf3pMR1Nd7cPlM9Lv6J+P7O+
alvCv7I9zkJ/6CnBpLsCrEV82KKFLvp5NMskon3yZKYo4upzt/C+yk0sZvqscTJO
-----END CERTIFICATE-----
