Certificate:
    Data:
        Version: 3 (0x2)
        Serial Number:
            3c:c7:18:4c:52:83:5b:0e:89:ed:71:ed:50:01:d5:e8:91:6a:37:47
        Signature Algorithm: sha256WithRSAEncryption
        Issuer: C=BE, ST=Vlaams-Brabant, O=Portage-ng Demo CA, CN=Pieter Van den Abeele/emailAddress=pvdabeel@mac.com
        Validity
            Not Before: Aug 19 15:49:51 2024 GMT
            Not After : Aug 19 15:49:51 2025 GMT
        Subject: C=BE, ST=Vlaams-Brabant, L=Galmaarden, O=Portage-ng Demo Client Cert, OU=Client - macbook-pro.local, CN=macbook-pro.local/emailAddress=pvdabeel@mac.com
        Subject Public Key Info:
            Public Key Algorithm: rsaEncryption
                Public-Key: (2048 bit)
                Modulus:
                    00:e2:b0:dc:d2:e6:6f:c0:16:de:a9:49:d7:03:15:
                    f4:33:4a:7b:46:f0:9f:3c:eb:5a:f2:18:9a:b0:e8:
                    8f:b8:0c:2c:b9:91:db:48:6d:a4:a7:3e:93:a7:a1:
                    0e:a6:94:7c:08:c3:e2:ee:d4:ee:3f:da:b5:29:a0:
                    e4:ed:5e:5c:97:6a:f7:78:af:92:9c:e3:c5:2d:15:
                    e8:a2:04:b4:95:ff:44:4b:5e:fa:2d:69:e4:37:71:
                    4f:96:d8:87:1e:b7:4d:39:cb:ea:9e:ee:17:50:7b:
                    10:47:42:a3:fd:a9:e2:41:1d:67:a5:4d:1d:33:02:
                    33:fc:08:97:69:b3:71:f6:dd:45:1a:ad:36:a8:d5:
                    15:45:be:88:64:76:e1:c1:c5:1b:31:79:7d:c2:9a:
                    16:a8:16:dd:2b:62:b3:5e:ff:78:78:2e:35:b1:ec:
                    b1:85:9b:09:10:30:8c:0e:f7:93:3e:21:bb:1f:35:
                    9d:31:9a:9b:2a:33:7a:27:b9:a5:af:a3:d6:27:26:
                    56:2d:1d:c6:b7:69:fd:1e:97:5a:8f:3e:01:38:8d:
                    ad:6a:14:f3:34:22:f7:c1:9b:fe:1f:59:6e:40:fc:
                    c3:4a:27:cd:e8:6d:c2:ef:fe:be:a6:c1:dc:db:ca:
                    bb:e4:cd:68:85:c3:87:ee:c3:f5:bb:b2:82:ab:05:
                    d8:7b
                Exponent: 65537 (0x10001)
        X509v3 extensions:
            X509v3 Basic Constraints: 
                CA:FALSE
            X509v3 Subject Key Identifier: 
                A6:17:8C:10:79:DC:E1:0F:07:14:3B:28:65:9E:8C:4B:E6:EC:57:49
            X509v3 Authority Key Identifier: 
                89:AF:F7:10:4A:F6:2B:38:35:03:56:FF:8D:03:61:53:3B:26:C8:7D
    Signature Algorithm: sha256WithRSAEncryption
    Signature Value:
        1e:dd:71:10:13:c9:ac:70:17:94:c6:ac:ad:8b:2b:d5:f3:ec:
        3d:00:32:96:b0:0a:b4:92:c4:a5:de:27:14:f1:fb:3d:49:93:
        a9:3d:07:62:f2:51:72:cf:f3:f8:4c:5d:2c:5a:9e:fe:5b:20:
        6f:a0:29:47:35:75:6d:4f:10:a0:8d:d1:ab:ee:7b:83:b1:56:
        33:89:e4:4a:a4:13:ba:71:b7:84:cb:c7:7a:9f:ca:92:b1:df:
        be:cb:9f:d1:a6:60:f4:09:3e:b2:7d:86:38:ca:49:f3:67:02:
        1f:f7:b0:fd:67:be:b3:09:a5:46:66:b5:3c:a8:6d:2d:5b:67:
        8b:7b:80:01:72:a2:2d:1c:47:3f:45:18:2b:15:9b:a3:c7:f3:
        ce:5d:84:76:29:ba:f0:9b:30:c9:25:b6:02:62:e4:c0:2f:e3:
        08:9a:69:0a:49:c7:f7:74:b4:2e:b7:c7:13:92:0b:c2:c8:e3:
        7f:bf:59:64:14:05:87:18:4c:34:2b:0d:3a:20:fd:e8:35:39:
        67:03:e2:b4:b1:94:45:45:29:c5:0a:53:cb:41:0e:ab:e2:1b:
        64:ed:8f:8c:75:8a:28:e2:db:4c:b6:7a:d2:ab:97:61:24:b9:
        bc:b9:96:d0:aa:41:3d:a0:9d:1a:bf:6b:45:ff:fb:b1:29:32:
        55:0b:90:4e
-----BEGIN CERTIFICATE-----
MIIEJDCCAwygAwIBAgIUPMcYTFKDWw6J7XHtUAHV6JFqN0cwDQYJKoZIhvcNAQEL
BQAwgYQxCzAJBgNVBAYTAkJFMRcwFQYDVQQIDA5WbGFhbXMtQnJhYmFudDEbMBkG
A1UECgwSUG9ydGFnZS1uZyBEZW1vIENBMR4wHAYDVQQDDBVQaWV0ZXIgVmFuIGRl
biBBYmVlbGUxHzAdBgkqhkiG9w0BCQEWEHB2ZGFiZWVsQG1hYy5jb20wHhcNMjQw
ODE5MTU0OTUxWhcNMjUwODE5MTU0OTUxWjCBwzELMAkGA1UEBhMCQkUxFzAVBgNV
BAgMDlZsYWFtcy1CcmFiYW50MRMwEQYDVQQHDApHYWxtYWFyZGVuMSQwIgYDVQQK
DBtQb3J0YWdlLW5nIERlbW8gQ2xpZW50IENlcnQxIzAhBgNVBAsMGkNsaWVudCAt
IG1hY2Jvb2stcHJvLmxvY2FsMRowGAYDVQQDDBFtYWNib29rLXByby5sb2NhbDEf
MB0GCSqGSIb3DQEJARYQcHZkYWJlZWxAbWFjLmNvbTCCASIwDQYJKoZIhvcNAQEB
BQADggEPADCCAQoCggEBAOKw3NLmb8AW3qlJ1wMV9DNKe0bwnzzrWvIYmrDoj7gM
LLmR20htpKc+k6ehDqaUfAjD4u7U7j/atSmg5O1eXJdq93ivkpzjxS0V6KIEtJX/
REte+i1p5DdxT5bYhx63TTnL6p7uF1B7EEdCo/2p4kEdZ6VNHTMCM/wIl2mzcfbd
RRqtNqjVFUW+iGR24cHFGzF5fcKaFqgW3Stis17/eHguNbHssYWbCRAwjA73kz4h
ux81nTGamyozeie5pa+j1icmVi0dxrdp/R6XWo8+ATiNrWoU8zQi98Gb/h9ZbkD8
w0onzehtwu/+vqbB3NvKu+TNaIXDh+7D9buygqsF2HsCAwEAAaNNMEswCQYDVR0T
BAIwADAdBgNVHQ4EFgQUpheMEHnc4Q8HFDsoZZ6MS+bsV0kwHwYDVR0jBBgwFoAU
ia/3EEr2Kzg1A1b/jQNhUzsmyH0wDQYJKoZIhvcNAQELBQADggEBAB7dcRATyaxw
F5TGrK2LK9Xz7D0AMpawCrSSxKXeJxTx+z1Jk6k9B2LyUXLP8/hMXSxanv5bIG+g
KUc1dW1PEKCN0avue4OxVjOJ5EqkE7pxt4TLx3qfypKx377Ln9GmYPQJPrJ9hjjK
SfNnAh/3sP1nvrMJpUZmtTyobS1bZ4t7gAFyoi0cRz9FGCsVm6PH885dhHYpuvCb
MMkltgJi5MAv4wiaaQpJx/d0tC63xxOSC8LI43+/WWQUBYcYTDQrDTog/eg1OWcD
4rSxlEVFKcUKU8tBDqviG2Ttj4x1iiji20y2etKrl2Ekuby5ltCqQT2gnRq/a0X/
+7EpMlULkE4=
-----END CERTIFICATE-----
