Certificate:
    Data:
        Version: 3 (0x2)
        Serial Number:
            3c:c7:18:4c:52:83:5b:0e:89:ed:71:ed:50:01:d5:e8:91:6a:37:4b
        Signature Algorithm: sha256WithRSAEncryption
        Issuer: C=BE, ST=Vlaams-Brabant, O=Portage-ng Demo CA, CN=Pieter Van den Abeele/emailAddress=pvdabeel@mac.com
        Validity
            Not Before: Aug 19 16:54:21 2024 GMT
            Not After : Aug 19 16:54:21 2025 GMT
        Subject: C=BE, ST=Vlaams-Brabant, L=Galmaarden, O=Portage-ng Demo Server Cert, OU=Server - macbook-pro.local, CN=macbook-pro.local/emailAddress=pvdabeel@mac.com
        Subject Public Key Info:
            Public Key Algorithm: rsaEncryption
                Public-Key: (2048 bit)
                Modulus:
                    00:b9:20:1e:df:f8:c0:49:a3:f6:0c:36:6d:57:76:
                    ae:b9:12:52:1f:ea:1c:4b:fa:15:e1:c3:df:1e:1e:
                    b8:d6:a6:7a:d5:e5:95:30:70:4a:24:84:14:a2:9e:
                    5c:fa:b0:ce:5f:9b:31:93:3f:22:57:cb:da:90:ce:
                    f6:c6:4d:78:a9:61:6f:d3:e2:6a:77:a2:fd:18:70:
                    97:a9:39:5e:ba:b0:86:c7:d6:41:97:e9:d9:38:c4:
                    e4:45:35:55:09:0e:e1:cc:e6:f0:8c:9d:f9:6e:bf:
                    f9:d2:fb:46:bb:43:35:8b:1c:a1:a9:8f:e6:d2:cd:
                    66:8f:cd:03:5b:f9:39:b2:30:43:b0:26:3c:81:ef:
                    8c:88:58:3c:89:10:36:c9:d7:9a:ce:e5:2a:11:ec:
                    2a:52:5f:a9:2b:19:61:64:16:c7:c4:6b:4b:86:24:
                    92:20:8b:09:1d:ce:6b:e6:09:45:a5:3c:fe:27:9e:
                    16:72:20:f9:5d:0a:41:87:2c:6f:ec:f4:d3:ea:46:
                    f3:7b:5a:2d:ba:ad:4c:e0:30:87:2c:e9:91:1a:31:
                    dd:bb:f5:32:55:dd:23:dc:82:0d:df:69:54:05:fe:
                    cf:0b:75:93:f4:04:de:b3:47:c4:f9:90:5b:df:0f:
                    9a:30:91:da:2d:8b:3c:2d:e3:f8:cc:10:b6:6f:14:
                    b6:6b
                Exponent: 65537 (0x10001)
        X509v3 extensions:
            X509v3 Basic Constraints: 
                CA:FALSE
            X509v3 Subject Key Identifier: 
                09:6C:7C:80:7E:6F:C4:87:42:F7:92:17:6F:BC:0C:41:54:7A:7E:DB
            X509v3 Authority Key Identifier: 
                89:AF:F7:10:4A:F6:2B:38:35:03:56:FF:8D:03:61:53:3B:26:C8:7D
    Signature Algorithm: sha256WithRSAEncryption
    Signature Value:
        3f:22:1d:25:e0:72:ee:04:08:a9:42:98:24:42:bc:ce:14:69:
        d3:aa:f0:7d:62:48:37:6d:99:f1:65:39:cf:ff:db:e0:03:b1:
        2f:7f:db:f0:dd:77:14:f0:28:d4:58:09:16:6f:4d:4d:08:55:
        3d:63:ac:85:17:1d:8a:b1:f2:05:57:26:21:92:18:f7:ba:ea:
        b8:9c:aa:06:06:16:79:f1:2a:7d:4f:7a:6e:41:ed:ba:60:60:
        2f:ac:88:ac:d7:e7:79:d2:18:73:31:57:c8:80:5d:c8:88:03:
        50:19:25:d8:e3:5f:05:ba:85:43:ff:03:b6:70:65:87:c5:63:
        b5:20:8d:66:b6:77:95:45:62:60:5f:32:04:a8:97:93:e4:ef:
        02:11:cd:e2:a8:52:b3:3d:a1:dd:0a:04:29:53:b9:bc:cc:00:
        50:ec:b2:f0:7f:93:56:de:df:43:80:ee:0d:f8:89:7b:7e:75:
        64:da:04:57:2a:b6:3f:63:37:a1:1f:09:b0:31:8a:d7:c6:2a:
        c3:74:04:c1:76:48:70:87:06:4b:10:e2:b4:a3:0e:2b:46:2e:
        60:16:05:60:cd:f4:43:ef:be:08:4d:97:67:37:66:91:f0:5a:
        b0:ca:63:0e:30:56:76:d7:3a:dc:8c:50:40:d7:48:4b:6a:1d:
        5c:0f:c4:f6
-----BEGIN CERTIFICATE-----
MIIEJDCCAwygAwIBAgIUPMcYTFKDWw6J7XHtUAHV6JFqN0swDQYJKoZIhvcNAQEL
BQAwgYQxCzAJBgNVBAYTAkJFMRcwFQYDVQQIDA5WbGFhbXMtQnJhYmFudDEbMBkG
A1UECgwSUG9ydGFnZS1uZyBEZW1vIENBMR4wHAYDVQQDDBVQaWV0ZXIgVmFuIGRl
biBBYmVlbGUxHzAdBgkqhkiG9w0BCQEWEHB2ZGFiZWVsQG1hYy5jb20wHhcNMjQw
ODE5MTY1NDIxWhcNMjUwODE5MTY1NDIxWjCBwzELMAkGA1UEBhMCQkUxFzAVBgNV
BAgMDlZsYWFtcy1CcmFiYW50MRMwEQYDVQQHDApHYWxtYWFyZGVuMSQwIgYDVQQK
DBtQb3J0YWdlLW5nIERlbW8gU2VydmVyIENlcnQxIzAhBgNVBAsMGlNlcnZlciAt
IG1hY2Jvb2stcHJvLmxvY2FsMRowGAYDVQQDDBFtYWNib29rLXByby5sb2NhbDEf
MB0GCSqGSIb3DQEJARYQcHZkYWJlZWxAbWFjLmNvbTCCASIwDQYJKoZIhvcNAQEB
BQADggEPADCCAQoCggEBALkgHt/4wEmj9gw2bVd2rrkSUh/qHEv6FeHD3x4euNam
etXllTBwSiSEFKKeXPqwzl+bMZM/IlfL2pDO9sZNeKlhb9Pianei/Rhwl6k5Xrqw
hsfWQZfp2TjE5EU1VQkO4czm8Iyd+W6/+dL7RrtDNYscoamP5tLNZo/NA1v5ObIw
Q7AmPIHvjIhYPIkQNsnXms7lKhHsKlJfqSsZYWQWx8RrS4YkkiCLCR3Oa+YJRaU8
/ieeFnIg+V0KQYcsb+z00+pG83taLbqtTOAwhyzpkRox3bv1MlXdI9yCDd9pVAX+
zwt1k/QE3rNHxPmQW98PmjCR2i2LPC3j+MwQtm8UtmsCAwEAAaNNMEswCQYDVR0T
BAIwADAdBgNVHQ4EFgQUCWx8gH5vxIdC95IXb7wMQVR6ftswHwYDVR0jBBgwFoAU
ia/3EEr2Kzg1A1b/jQNhUzsmyH0wDQYJKoZIhvcNAQELBQADggEBAD8iHSXgcu4E
CKlCmCRCvM4UadOq8H1iSDdtmfFlOc//2+ADsS9/2/DddxTwKNRYCRZvTU0IVT1j
rIUXHYqx8gVXJiGSGPe66ricqgYGFnnxKn1Pem5B7bpgYC+siKzX53nSGHMxV8iA
XciIA1AZJdjjXwW6hUP/A7ZwZYfFY7UgjWa2d5VFYmBfMgSol5Pk7wIRzeKoUrM9
od0KBClTubzMAFDssvB/k1be30OA7g34iXt+dWTaBFcqtj9jN6EfCbAxitfGKsN0
BMF2SHCHBksQ4rSjDitGLmAWBWDN9EPvvghNl2c3ZpHwWrDKYw4wVnbXOtyMUEDX
SEtqHVwPxPY=
-----END CERTIFICATE-----
