Certificate:
    Data:
        Version: 3 (0x2)
        Serial Number:
            4f:7a:14:15:e4:c5:16:6b:56:4d:da:8c:71:20:63:d2:c6:87:8e:cf
        Signature Algorithm: sha256WithRSAEncryption
        Issuer: C=BE, ST=Vlaams-Brabant, O=Portage-ng Client-Server Demo CA, CN=Pieter Van den Abeele/emailAddress=pvdabeel@mac.com
        Validity
            Not Before: Aug 19 15:10:25 2024 GMT
            Not After : Aug 19 15:10:25 2025 GMT
        Subject: C=BE, ST=Vlaams-Brabant, L=Galmaarden, O=Portage-ng Demo Server cert, OU=Server, CN={macbook-pro\/imac-pro\/mac-pro\/vm-linux}.local/emailAddress=pvdabeel@mac.com
        Subject Public Key Info:
            Public Key Algorithm: rsaEncryption
                Public-Key: (2048 bit)
                Modulus:
                    00:b3:5d:d8:4e:d7:0d:ae:88:50:e0:0d:48:41:dc:
                    01:e7:68:99:52:dd:9f:25:3b:89:28:02:ef:f2:80:
                    02:bf:96:d6:4e:aa:95:42:21:41:8d:c1:e8:0e:28:
                    ee:50:0a:1e:72:d4:10:ef:36:b9:aa:a1:ac:f5:fa:
                    96:65:13:36:3e:2a:43:13:d5:51:67:9e:d8:a1:9d:
                    49:f3:2f:64:c3:dc:4e:12:77:01:82:9d:48:44:51:
                    34:13:d7:bd:80:2d:92:f7:5a:24:5c:f1:a8:ef:24:
                    21:8d:6e:46:8d:99:cf:d0:6d:9f:7b:9d:b5:5f:31:
                    ad:92:1c:88:1e:4d:bf:a1:22:85:3e:37:a7:fc:be:
                    3d:49:09:05:c1:54:b0:0e:1b:79:f4:0e:89:2a:85:
                    32:07:7d:76:c2:ae:b3:0a:d6:99:b8:83:07:cd:07:
                    da:70:35:b0:ac:8f:6b:ee:a3:f2:93:54:61:bd:54:
                    3a:ee:79:61:3d:08:6e:68:10:9a:55:d7:86:48:a0:
                    4b:d3:1a:a1:0c:7c:bd:88:77:2d:01:7a:bd:a6:47:
                    2e:2c:ae:b5:87:d2:43:4a:3d:e1:c8:3f:f5:b9:b0:
                    87:ff:9f:31:e1:3a:b9:8e:29:cc:d7:a1:c3:0a:aa:
                    e8:59:10:19:0e:18:6b:aa:3f:64:13:15:db:c5:b2:
                    a5:ed
                Exponent: 65537 (0x10001)
        X509v3 extensions:
            X509v3 Basic Constraints: 
                CA:FALSE
            X509v3 Subject Key Identifier: 
                39:80:F6:3E:AF:F9:84:E0:CB:51:4F:B5:14:75:AC:12:EF:4D:E3:38
            X509v3 Authority Key Identifier: 
                61:8E:A5:04:A4:94:1D:62:AC:C4:05:15:9C:A2:75:70:5C:41:AA:A9
    Signature Algorithm: sha256WithRSAEncryption
    Signature Value:
        6b:92:e7:21:67:fe:b9:ba:69:c6:b2:0b:7a:a4:0c:41:56:ab:
        68:76:ee:36:d7:44:06:7b:84:5a:b1:0f:d5:bb:fb:ec:c0:4f:
        66:2b:90:ce:33:79:2e:54:73:65:f7:e7:24:dc:a8:05:ab:57:
        9b:b2:4e:7f:1a:75:e2:ae:1e:02:0f:c7:54:64:10:05:53:88:
        ef:6c:3d:e7:ce:85:67:e0:a4:a7:1e:b4:fb:79:a6:3d:78:05:
        e1:9e:02:2c:9a:23:d5:f4:fe:af:31:8f:bd:ca:9d:ee:df:6e:
        e6:83:bf:e3:d9:30:e4:ad:be:fe:ec:a1:dc:95:d0:2d:c1:b5:
        fc:db:c9:55:68:c9:60:73:20:2e:07:05:54:6f:dd:e9:80:d3:
        df:d6:1a:9f:9d:45:ad:7d:56:59:24:e4:05:93:6f:aa:d4:85:
        df:97:e5:fd:66:cd:1e:ab:19:dc:f2:5c:45:51:87:8d:c8:e1:
        83:8b:bd:91:4d:ac:d2:3a:4a:11:19:7a:ea:a0:7b:b9:e8:97:
        0c:99:28:73:ea:4a:59:6c:02:e2:eb:88:0c:27:8c:89:13:e7:
        1f:84:11:73:50:d3:d9:65:40:c9:ea:cb:9b:a8:0d:48:f0:df:
        a6:9e:43:67:1b:f6:1f:63:f1:4a:9d:6b:a4:b0:7c:fd:0c:7f:
        51:94:3f:a8
-----BEGIN CERTIFICATE-----
MIIEOjCCAyKgAwIBAgIUT3oUFeTFFmtWTdqMcSBj0saHjs8wDQYJKoZIhvcNAQEL
BQAwgZIxCzAJBgNVBAYTAkJFMRcwFQYDVQQIDA5WbGFhbXMtQnJhYmFudDEpMCcG
A1UECgwgUG9ydGFnZS1uZyBDbGllbnQtU2VydmVyIERlbW8gQ0ExHjAcBgNVBAMM
FVBpZXRlciBWYW4gZGVuIEFiZWVsZTEfMB0GCSqGSIb3DQEJARYQcHZkYWJlZWxA
bWFjLmNvbTAeFw0yNDA4MTkxNTEwMjVaFw0yNTA4MTkxNTEwMjVaMIHLMQswCQYD
VQQGEwJCRTEXMBUGA1UECAwOVmxhYW1zLUJyYWJhbnQxEzARBgNVBAcMCkdhbG1h
YXJkZW4xJDAiBgNVBAoMG1BvcnRhZ2UtbmcgRGVtbyBTZXJ2ZXIgY2VydDEPMA0G
A1UECwwGU2VydmVyMTYwNAYDVQQDDC17bWFjYm9vay1wcm8vaW1hYy1wcm8vbWFj
LXByby92bS1saW51eH0ubG9jYWwxHzAdBgkqhkiG9w0BCQEWEHB2ZGFiZWVsQG1h
Yy5jb20wggEiMA0GCSqGSIb3DQEBAQUAA4IBDwAwggEKAoIBAQCzXdhO1w2uiFDg
DUhB3AHnaJlS3Z8lO4koAu/ygAK/ltZOqpVCIUGNwegOKO5QCh5y1BDvNrmqoaz1
+pZlEzY+KkMT1VFnntihnUnzL2TD3E4SdwGCnUhEUTQT172ALZL3WiRc8ajvJCGN
bkaNmc/QbZ97nbVfMa2SHIgeTb+hIoU+N6f8vj1JCQXBVLAOG3n0DokqhTIHfXbC
rrMK1pm4gwfNB9pwNbCsj2vuo/KTVGG9VDrueWE9CG5oEJpV14ZIoEvTGqEMfL2I
dy0Ber2mRy4srrWH0kNKPeHIP/W5sIf/nzHhOrmOKczXocMKquhZEBkOGGuqP2QT
FdvFsqXtAgMBAAGjTTBLMAkGA1UdEwQCMAAwHQYDVR0OBBYEFDmA9j6v+YTgy1FP
tRR1rBLvTeM4MB8GA1UdIwQYMBaAFGGOpQSklB1irMQFFZyidXBcQaqpMA0GCSqG
SIb3DQEBCwUAA4IBAQBrkuchZ/65umnGsgt6pAxBVqtodu4210QGe4RasQ/Vu/vs
wE9mK5DOM3kuVHNl9+ck3KgFq1ebsk5/GnXirh4CD8dUZBAFU4jvbD3nzoVn4KSn
HrT7eaY9eAXhngIsmiPV9P6vMY+9yp3u327mg7/j2TDkrb7+7KHcldAtwbX828lV
aMlgcyAuBwVUb93pgNPf1hqfnUWtfVZZJOQFk2+q1IXfl+X9Zs0eqxnc8lxFUYeN
yOGDi72RTazSOkoRGXrqoHu56JcMmShz6kpZbALi64gMJ4yJE+cfhBFzUNPZZUDJ
6subqA1I8N+mnkNnG/YfY/FKnWuksHz9DH9RlD+o
-----END CERTIFICATE-----
