Certificate:
    Data:
        Version: 3 (0x2)
        Serial Number:
            50:e8:8d:31:e1:2c:9f:0b:b4:a1:ef:fa:35:f7:3e:85:1f:9b:1a:c8
        Signature Algorithm: sha256WithRSAEncryption
        Issuer: C=BE, ST=Vlaams-Brabant, O=Xanthis BV, CN=localhost/emailAddress=pvdabeel@mac.com
        Validity
            Not Before: Aug 16 22:55:39 2024 GMT
            Not After : Aug 16 22:55:39 2025 GMT
        Subject: C=BE, ST=Vlaams-Brabant, L=Galmaarden, O=Xanthis BV, OU=Server, CN=localhost/emailAddress=pvdabeel@mac.com
        Subject Public Key Info:
            Public Key Algorithm: rsaEncryption
                Public-Key: (2048 bit)
                Modulus:
                    00:c5:c9:4f:b9:aa:df:d0:a6:b5:a0:68:5e:6d:b1:
                    0d:be:44:36:76:76:21:b8:ac:77:c8:c2:04:8e:ed:
                    31:03:d5:bb:d5:f5:33:86:bd:51:37:63:64:1f:df:
                    41:1e:0c:ae:68:cb:c2:4a:30:a3:28:17:30:7a:df:
                    5f:f6:06:d5:a1:98:ca:f8:cf:e3:70:4c:cf:f2:be:
                    7e:76:c6:f7:79:24:81:31:15:ae:d7:4c:1f:77:f3:
                    d2:9d:58:c5:10:ab:7b:44:3b:6d:f0:58:f7:76:4c:
                    f4:1d:97:50:34:8c:9d:4f:3e:85:88:ae:1c:08:19:
                    87:27:2f:20:ce:79:9f:13:d4:e7:b3:51:0d:68:3c:
                    ad:47:11:ad:d8:05:8a:22:a6:bc:84:c9:d6:19:30:
                    f2:b5:7b:0a:5e:9b:f4:c5:d9:44:5e:9c:ca:d8:06:
                    23:c3:b7:3a:dc:d7:3d:e1:aa:a4:b7:0b:4e:cf:22:
                    5c:9a:18:de:2f:b3:5a:4e:0a:da:93:69:0f:8d:0b:
                    52:ce:54:17:cc:97:08:9d:c5:41:2a:21:1e:7c:16:
                    ae:71:f4:be:b3:1e:a0:f4:84:81:cd:52:e5:51:ea:
                    b5:3e:d4:a3:24:2a:3d:12:95:43:4f:0d:a1:55:14:
                    f3:e3:5b:a0:fb:ed:e6:27:36:45:dc:4a:61:41:0c:
                    1c:11
                Exponent: 65537 (0x10001)
        X509v3 extensions:
            X509v3 Basic Constraints: 
                CA:FALSE
            X509v3 Subject Key Identifier: 
                88:85:07:26:58:B9:0E:F5:DC:7B:B4:10:2B:EF:05:92:8E:5E:2B:C1
            X509v3 Authority Key Identifier: 
                7A:AE:AF:1A:79:4C:60:40:AB:BE:B6:CC:12:34:0F:8E:A9:E8:4E:09
    Signature Algorithm: sha256WithRSAEncryption
    Signature Value:
        68:59:a8:f9:9a:be:03:b3:8d:c0:c3:98:ef:67:6a:c1:60:3c:
        bd:ed:c9:12:3d:39:a6:30:d4:e6:c0:49:e4:2d:84:35:24:d1:
        b9:48:ec:a8:95:7e:cc:8d:65:34:c4:93:25:2e:ef:6c:b3:a7:
        1a:9d:91:1a:83:7a:f0:fe:ed:df:8c:06:f3:ac:08:a6:da:20:
        c5:03:7a:ec:ee:85:9b:1b:d7:ed:d5:61:c8:17:c2:9a:1c:f8:
        7f:3c:7c:91:0b:2c:16:c6:25:b6:eb:83:4a:5f:2f:72:0e:56:
        73:17:21:0b:b9:a5:a2:e1:7b:27:96:61:4c:c8:5f:7a:a3:6e:
        9f:a1:80:f4:8d:8d:db:eb:1a:a3:c1:ec:fd:fa:d4:ea:c4:fc:
        89:89:ad:91:22:4a:e1:ce:58:2f:2b:13:16:f7:75:cb:51:8b:
        cb:5d:0b:18:de:72:a6:11:92:b2:fb:53:a1:0e:95:dc:bc:c5:
        28:e5:ab:20:c0:f2:51:76:05:2b:0e:32:1b:10:6b:39:0e:5b:
        7e:e7:82:96:e6:bc:ff:5c:5d:fa:bd:bd:53:54:84:24:41:ac:
        4e:dc:54:a6:8b:8f:1e:43:2b:9f:b5:57:cd:2a:4d:69:bb:11:
        d9:9c:89:28:c1:bc:73:be:31:ce:e0:82:20:78:75:21:94:a4:
        d8:ab:f7:e7
-----BEGIN CERTIFICATE-----
MIID4jCCAsqgAwIBAgIUUOiNMeEsnwu0oe/6Nfc+hR+bGsgwDQYJKoZIhvcNAQEL
BQAwcDELMAkGA1UEBhMCQkUxFzAVBgNVBAgMDlZsYWFtcy1CcmFiYW50MRMwEQYD
VQQKDApYYW50aGlzIEJWMRIwEAYDVQQDDAlsb2NhbGhvc3QxHzAdBgkqhkiG9w0B
CQEWEHB2ZGFiZWVsQG1hYy5jb20wHhcNMjQwODE2MjI1NTM5WhcNMjUwODE2MjI1
NTM5WjCBljELMAkGA1UEBhMCQkUxFzAVBgNVBAgMDlZsYWFtcy1CcmFiYW50MRMw
EQYDVQQHDApHYWxtYWFyZGVuMRMwEQYDVQQKDApYYW50aGlzIEJWMQ8wDQYDVQQL
DAZTZXJ2ZXIxEjAQBgNVBAMMCWxvY2FsaG9zdDEfMB0GCSqGSIb3DQEJARYQcHZk
YWJlZWxAbWFjLmNvbTCCASIwDQYJKoZIhvcNAQEBBQADggEPADCCAQoCggEBAMXJ
T7mq39CmtaBoXm2xDb5ENnZ2Ibisd8jCBI7tMQPVu9X1M4a9UTdjZB/fQR4MrmjL
wkowoygXMHrfX/YG1aGYyvjP43BMz/K+fnbG93kkgTEVrtdMH3fz0p1YxRCre0Q7
bfBY93ZM9B2XUDSMnU8+hYiuHAgZhycvIM55nxPU57NRDWg8rUcRrdgFiiKmvITJ
1hkw8rV7Cl6b9MXZRF6cytgGI8O3OtzXPeGqpLcLTs8iXJoY3i+zWk4K2pNpD40L
Us5UF8yXCJ3FQSohHnwWrnH0vrMeoPSEgc1S5VHqtT7UoyQqPRKVQ08NoVUU8+Nb
oPvt5ic2RdxKYUEMHBECAwEAAaNNMEswCQYDVR0TBAIwADAdBgNVHQ4EFgQUiIUH
Jli5DvXce7QQK+8Fko5eK8EwHwYDVR0jBBgwFoAUeq6vGnlMYECrvrbMEjQPjqno
TgkwDQYJKoZIhvcNAQELBQADggEBAGhZqPmavgOzjcDDmO9nasFgPL3tyRI9OaYw
1ObASeQthDUk0blI7KiVfsyNZTTEkyUu72yzpxqdkRqDevD+7d+MBvOsCKbaIMUD
euzuhZsb1+3VYcgXwpoc+H88fJELLBbGJbbrg0pfL3IOVnMXIQu5paLheyeWYUzI
X3qjbp+hgPSNjdvrGqPB7P361OrE/ImJrZEiSuHOWC8rExb3dctRi8tdCxjecqYR
krL7U6EOldy8xSjlqyDA8lF2BSsOMhsQazkOW37ngpbmvP9cXfq9vVNUhCRBrE7c
VKaLjx5DK5+1V80qTWm7EdmciSjBvHO+Mc7ggiB4dSGUpNir9+c=
-----END CERTIFICATE-----
