Certificate:
    Data:
        Version: 3 (0x2)
        Serial Number:
            3c:c7:18:4c:52:83:5b:0e:89:ed:71:ed:50:01:d5:e8:91:6a:37:4c
        Signature Algorithm: sha256WithRSAEncryption
        Issuer: C=BE, ST=Vlaams-Brabant, O=Portage-ng Demo CA, CN=Pieter Van den Abeele/emailAddress=pvdabeel@mac.com
        Validity
            Not Before: Aug 19 16:57:00 2024 GMT
            Not After : Aug 19 16:57:00 2025 GMT
        Subject: C=BE, ST=Vlaams-Brabant, L=Galmaarden, O=Portage-ng Demo Server Cert, OU=Server - vm-linux.local, CN=vm-linux.local/emailAddress=pvdabeel@mac.com
        Subject Public Key Info:
            Public Key Algorithm: rsaEncryption
                Public-Key: (2048 bit)
                Modulus:
                    00:e4:f7:1d:9e:75:8c:21:4b:1e:60:81:5a:fe:a3:
                    11:52:49:a7:32:56:be:69:ea:61:ef:89:aa:f7:27:
                    84:e9:1e:61:12:55:59:b3:89:0e:b9:c0:77:1f:99:
                    fd:06:06:be:d1:5e:be:dd:2e:0d:2c:4a:49:12:48:
                    19:e3:7e:85:a4:2a:6e:a7:d9:e2:6b:16:7b:06:e0:
                    ce:6e:f3:a5:a1:c9:b3:80:db:c6:a8:48:63:ae:94:
                    c8:d1:cf:0b:74:59:00:e3:f1:d9:dd:19:86:5f:8a:
                    73:d0:00:31:d9:48:b5:97:54:4b:7d:f3:41:98:7e:
                    a3:0b:a4:f6:ac:bf:a9:c9:6c:28:c6:14:e0:c3:cb:
                    39:3f:1a:17:a4:fa:96:00:79:98:ce:82:be:03:ab:
                    fb:9d:d2:97:7f:69:9e:6b:e9:ea:41:5a:da:6d:08:
                    65:4b:ca:a5:b3:c1:b8:fb:01:d5:d8:37:9e:5f:46:
                    01:0f:6c:f2:dc:05:fc:d3:a8:f9:b2:c0:b4:1d:26:
                    c4:4c:75:4c:5a:10:68:10:fd:74:db:47:1f:80:17:
                    fc:92:85:f4:25:e0:af:46:f7:72:e4:48:38:ff:1c:
                    a9:df:b9:8d:87:3d:77:85:82:6d:91:88:c7:93:09:
                    b4:23:69:e1:60:42:f4:8c:0b:df:8c:2d:95:9b:cb:
                    6c:65
                Exponent: 65537 (0x10001)
        X509v3 extensions:
            X509v3 Basic Constraints: 
                CA:FALSE
            X509v3 Subject Key Identifier: 
                A0:2C:6C:13:E5:F0:FA:39:3C:98:7E:2C:36:E0:F9:A5:A0:61:20:43
            X509v3 Authority Key Identifier: 
                89:AF:F7:10:4A:F6:2B:38:35:03:56:FF:8D:03:61:53:3B:26:C8:7D
    Signature Algorithm: sha256WithRSAEncryption
    Signature Value:
        16:08:32:58:8c:76:c5:d7:76:a4:89:54:c7:96:e5:4c:68:f3:
        31:6b:8f:73:65:e9:e5:25:c2:33:18:ac:dc:c7:c8:06:04:01:
        35:28:58:db:f2:16:8e:87:db:b9:04:51:b3:7b:47:3e:b0:72:
        bc:02:ef:aa:98:02:17:60:df:fa:c2:8f:53:f9:ca:c6:4b:86:
        5e:d3:1a:39:8e:be:e3:53:d6:61:7e:a4:37:1d:e1:6b:9e:de:
        7f:77:6b:f5:0c:0f:d7:31:fd:89:29:c5:31:ea:44:6f:68:3e:
        a0:4e:93:90:c7:22:f5:94:39:a9:c6:4e:3d:0e:94:58:3f:c7:
        19:54:73:30:b1:e0:ff:b5:0f:24:9b:7a:d8:7c:8a:11:fa:46:
        5e:b0:48:77:37:8e:e0:ce:bd:fa:5e:5b:c0:56:7f:bb:4b:65:
        a7:75:dd:b5:65:fb:f7:48:9d:4b:50:87:52:df:c2:e9:5a:b0:
        22:15:85:b3:59:9c:6c:33:d8:58:17:3f:51:76:57:9d:c2:35:
        d1:b2:58:65:33:c0:19:b8:30:80:02:48:17:b3:9d:99:aa:29:
        de:73:44:17:b9:ff:0a:b1:6e:2c:39:f9:15:cc:f3:84:83:6d:
        59:03:c1:73:a6:8b:d3:6d:5b:4d:47:44:cf:7f:48:11:12:ee:
        bd:2c:73:19
-----BEGIN CERTIFICATE-----
MIIEHjCCAwagAwIBAgIUPMcYTFKDWw6J7XHtUAHV6JFqN0wwDQYJKoZIhvcNAQEL
BQAwgYQxCzAJBgNVBAYTAkJFMRcwFQYDVQQIDA5WbGFhbXMtQnJhYmFudDEbMBkG
A1UECgwSUG9ydGFnZS1uZyBEZW1vIENBMR4wHAYDVQQDDBVQaWV0ZXIgVmFuIGRl
biBBYmVlbGUxHzAdBgkqhkiG9w0BCQEWEHB2ZGFiZWVsQG1hYy5jb20wHhcNMjQw
ODE5MTY1NzAwWhcNMjUwODE5MTY1NzAwWjCBvTELMAkGA1UEBhMCQkUxFzAVBgNV
BAgMDlZsYWFtcy1CcmFiYW50MRMwEQYDVQQHDApHYWxtYWFyZGVuMSQwIgYDVQQK
DBtQb3J0YWdlLW5nIERlbW8gU2VydmVyIENlcnQxIDAeBgNVBAsMF1NlcnZlciAt
IHZtLWxpbnV4LmxvY2FsMRcwFQYDVQQDDA52bS1saW51eC5sb2NhbDEfMB0GCSqG
SIb3DQEJARYQcHZkYWJlZWxAbWFjLmNvbTCCASIwDQYJKoZIhvcNAQEBBQADggEP
ADCCAQoCggEBAOT3HZ51jCFLHmCBWv6jEVJJpzJWvmnqYe+JqvcnhOkeYRJVWbOJ
DrnAdx+Z/QYGvtFevt0uDSxKSRJIGeN+haQqbqfZ4msWewbgzm7zpaHJs4DbxqhI
Y66UyNHPC3RZAOPx2d0Zhl+Kc9AAMdlItZdUS33zQZh+owuk9qy/qclsKMYU4MPL
OT8aF6T6lgB5mM6CvgOr+53Sl39pnmvp6kFa2m0IZUvKpbPBuPsB1dg3nl9GAQ9s
8twF/NOo+bLAtB0mxEx1TFoQaBD9dNtHH4AX/JKF9CXgr0b3cuRIOP8cqd+5jYc9
d4WCbZGIx5MJtCNp4WBC9IwL34wtlZvLbGUCAwEAAaNNMEswCQYDVR0TBAIwADAd
BgNVHQ4EFgQUoCxsE+Xw+jk8mH4sNuD5paBhIEMwHwYDVR0jBBgwFoAUia/3EEr2
Kzg1A1b/jQNhUzsmyH0wDQYJKoZIhvcNAQELBQADggEBABYIMliMdsXXdqSJVMeW
5Uxo8zFrj3Nl6eUlwjMYrNzHyAYEATUoWNvyFo6H27kEUbN7Rz6wcrwC76qYAhdg
3/rCj1P5ysZLhl7TGjmOvuNT1mF+pDcd4Wue3n93a/UMD9cx/YkpxTHqRG9oPqBO
k5DHIvWUOanGTj0OlFg/xxlUczCx4P+1DySbeth8ihH6Rl6wSHc3juDOvfpeW8BW
f7tLZad13bVl+/dInUtQh1LfwulasCIVhbNZnGwz2FgXP1F2V53CNdGyWGUzwBm4
MIACSBeznZmqKd5zRBe5/wqxbiw5+RXM84SDbVkDwXOmi9NtW01HRM9/SBES7r0s
cxk=
-----END CERTIFICATE-----
