Certificate:
    Data:
        Version: 3 (0x2)
        Serial Number:
            3c:c7:18:4c:52:83:5b:0e:89:ed:71:ed:50:01:d5:e8:91:6a:37:48
        Signature Algorithm: sha256WithRSAEncryption
        Issuer: C=BE, ST=Vlaams-Brabant, O=Portage-ng Demo CA, CN=Pieter Van den Abeele/emailAddress=pvdabeel@mac.com
        Validity
            Not Before: Aug 19 15:51:58 2024 GMT
            Not After : Aug 19 15:51:58 2025 GMT
        Subject: C=BE, ST=Vlaams-Brabant, L=Galmaarden, O=Portage-ng Demo Client Cert, OU=Client - vm-linux.local, CN=vm-linux.local/emailAddress=pvdabeel@mac.com
        Subject Public Key Info:
            Public Key Algorithm: rsaEncryption
                Public-Key: (2048 bit)
                Modulus:
                    00:cb:5b:27:ce:5f:ba:b9:96:d5:e0:52:14:ae:c5:
                    80:6d:e3:77:65:9c:96:ee:03:0b:cb:4f:65:24:a3:
                    c9:20:9f:67:79:37:08:14:98:a5:53:55:d2:0e:3d:
                    cb:c0:f5:fc:cd:80:0a:fb:3c:3c:a2:e7:1c:15:0c:
                    6e:af:5a:5e:da:c9:70:24:01:07:5a:c2:e7:06:29:
                    ba:24:cf:bd:a6:1d:08:db:a6:fb:06:cb:6e:ac:bb:
                    af:88:5f:78:fb:92:0c:94:5a:6f:3f:cc:5b:21:12:
                    11:12:20:5b:a1:56:a0:a4:c3:04:2b:c4:01:a9:75:
                    52:b1:89:98:76:67:92:f2:6c:0a:c1:c5:87:38:f1:
                    ea:ee:b0:04:67:98:ec:83:72:88:7c:8f:04:32:d8:
                    5c:dd:f7:3e:66:9f:4c:26:ff:08:00:8d:36:f1:56:
                    22:a4:be:38:f9:35:3f:d0:98:a6:d5:91:7e:91:d8:
                    93:d7:2c:97:55:5c:0e:ad:79:7c:0d:5e:3b:36:84:
                    00:e7:ae:6c:05:b7:c5:f0:14:65:6f:00:75:8b:d1:
                    2a:ef:45:38:ee:ba:83:6a:c4:ac:ff:a8:69:5a:cf:
                    56:24:6f:f7:73:b6:c9:a6:7f:e0:f3:d1:d2:54:91:
                    68:11:47:00:b2:3b:f5:b3:85:bb:5c:23:0f:ea:1d:
                    de:cb
                Exponent: 65537 (0x10001)
        X509v3 extensions:
            X509v3 Basic Constraints: 
                CA:FALSE
            X509v3 Subject Key Identifier: 
                E6:C9:AE:1F:47:AE:15:78:7A:5F:E5:35:51:50:86:47:AC:14:D4:08
            X509v3 Authority Key Identifier: 
                89:AF:F7:10:4A:F6:2B:38:35:03:56:FF:8D:03:61:53:3B:26:C8:7D
    Signature Algorithm: sha256WithRSAEncryption
    Signature Value:
        7a:5c:c3:9b:33:b3:c5:bd:a4:36:e8:8e:15:3b:f7:c4:de:81:
        fa:c4:45:28:73:24:eb:0e:70:4c:86:77:3f:ad:05:f6:7e:9c:
        d1:f2:f2:bd:f4:35:2b:b6:fb:78:cb:d1:7a:ef:64:36:96:6b:
        0f:78:74:7b:2e:1c:86:42:df:5e:99:82:91:c1:ba:35:43:9a:
        9d:42:af:fa:99:ce:dc:a8:03:20:84:8c:4f:34:09:56:f8:77:
        da:6d:91:7e:5a:1b:a1:9d:4f:ea:e6:14:ec:dc:c6:15:c6:f1:
        58:9e:cd:3e:c8:51:43:73:fa:02:b6:c1:46:c5:d1:09:40:53:
        ca:4e:fd:e6:73:a1:77:cd:9c:59:6c:0f:9b:1e:fd:08:ed:dc:
        31:b1:52:ce:34:d3:ec:a1:ba:6e:65:a2:ec:29:7d:0a:c2:12:
        69:b0:2f:67:1b:d7:cf:ed:1a:65:0a:ff:1c:c5:1f:7e:b7:0c:
        04:72:e3:66:07:e6:e5:c9:45:c5:e5:54:79:3a:58:1b:36:22:
        6f:c4:90:07:af:8f:4d:12:a3:29:20:f8:ff:37:ef:b5:1c:62:
        2b:23:9d:7f:1e:02:7c:86:49:25:30:51:86:91:bb:24:35:62:
        ed:98:fd:cc:50:86:03:e3:21:be:44:f3:b4:31:ea:a7:0f:81:
        07:bb:11:66
-----BEGIN CERTIFICATE-----
MIIEHjCCAwagAwIBAgIUPMcYTFKDWw6J7XHtUAHV6JFqN0gwDQYJKoZIhvcNAQEL
BQAwgYQxCzAJBgNVBAYTAkJFMRcwFQYDVQQIDA5WbGFhbXMtQnJhYmFudDEbMBkG
A1UECgwSUG9ydGFnZS1uZyBEZW1vIENBMR4wHAYDVQQDDBVQaWV0ZXIgVmFuIGRl
biBBYmVlbGUxHzAdBgkqhkiG9w0BCQEWEHB2ZGFiZWVsQG1hYy5jb20wHhcNMjQw
ODE5MTU1MTU4WhcNMjUwODE5MTU1MTU4WjCBvTELMAkGA1UEBhMCQkUxFzAVBgNV
BAgMDlZsYWFtcy1CcmFiYW50MRMwEQYDVQQHDApHYWxtYWFyZGVuMSQwIgYDVQQK
DBtQb3J0YWdlLW5nIERlbW8gQ2xpZW50IENlcnQxIDAeBgNVBAsMF0NsaWVudCAt
IHZtLWxpbnV4LmxvY2FsMRcwFQYDVQQDDA52bS1saW51eC5sb2NhbDEfMB0GCSqG
SIb3DQEJARYQcHZkYWJlZWxAbWFjLmNvbTCCASIwDQYJKoZIhvcNAQEBBQADggEP
ADCCAQoCggEBAMtbJ85furmW1eBSFK7FgG3jd2Wclu4DC8tPZSSjySCfZ3k3CBSY
pVNV0g49y8D1/M2ACvs8PKLnHBUMbq9aXtrJcCQBB1rC5wYpuiTPvaYdCNum+wbL
bqy7r4hfePuSDJRabz/MWyESERIgW6FWoKTDBCvEAal1UrGJmHZnkvJsCsHFhzjx
6u6wBGeY7INyiHyPBDLYXN33PmafTCb/CACNNvFWIqS+OPk1P9CYptWRfpHYk9cs
l1VcDq15fA1eOzaEAOeubAW3xfAUZW8AdYvRKu9FOO66g2rErP+oaVrPViRv93O2
yaZ/4PPR0lSRaBFHALI79bOFu1wjD+od3ssCAwEAAaNNMEswCQYDVR0TBAIwADAd
BgNVHQ4EFgQU5smuH0euFXh6X+U1UVCGR6wU1AgwHwYDVR0jBBgwFoAUia/3EEr2
Kzg1A1b/jQNhUzsmyH0wDQYJKoZIhvcNAQELBQADggEBAHpcw5szs8W9pDbojhU7
98TegfrERShzJOsOcEyGdz+tBfZ+nNHy8r30NSu2+3jL0XrvZDaWaw94dHsuHIZC
316ZgpHBujVDmp1Cr/qZztyoAyCEjE80CVb4d9ptkX5aG6GdT+rmFOzcxhXG8Vie
zT7IUUNz+gK2wUbF0QlAU8pO/eZzoXfNnFlsD5se/Qjt3DGxUs400+yhum5louwp
fQrCEmmwL2cb18/tGmUK/xzFH363DARy42YH5uXJRcXlVHk6WBs2Im/EkAevj00S
oykg+P8377UcYisjnX8eAnyGSSUwUYaRuyQ1Yu2Y/cxQhgPjIb5E87Qx6qcPgQe7
EWY=
-----END CERTIFICATE-----
